(ccopy_reg
_reconstructor
p0
(cfeedparser
FeedParserDict
p1
c__builtin__
dict
p2
(dp3
S'feed'
p4
g0
(g1
g2
(dp5
S'dc_source'
p6
Vhttps://newyork.craigslist.org/search/stp?format=rss
p7
sS'subtitle'
p8
V
p9
sS'author'
p10
Vrobot@craigslist.org
p11
sS'links'
p12
(lp13
g0
(g1
g2
(dp14
S'href'
p15
Vhttps://newyork.craigslist.org/search/stp
p16
sS'type'
p17
Vtext/html
p18
sS'rel'
p19
Valternate
p20
stp21
Rp22
asS'rdf_seq'
p23
g9
sS'link'
p24
g16
sS'authors'
p25
(lp26
g0
(g1
g2
(dp27
S'email'
p28
g11
stp29
Rp30
asS'rights_detail'
p31
g0
(g1
g2
(dp32
S'base'
p33
Vhttps://newyork.craigslist.org/search/stp?format=rss
p34
sg17
Vtext/plain
p35
sS'language'
p36
NsS'value'
p37
Vcopyright 2017 craiglist
p38
stp39
Rp40
sS'publisher_detail'
p41
g0
(g1
g2
(dp42
g28
Vrobot@craigslist.org
p43
stp44
Rp45
sS'author_detail'
p46
g30
sS'sy_updatebase'
p47
V2017-03-29T00:46:59-04:00
p48
sS'publisher'
p49
g43
sS'dc_type'
p50
VCollection
p51
sg36
Ven-us
p52
sS'title'
p53
Vcraigslist new york | strictly platonic search
p54
sS'rights'
p55
g38
sS'rdf_li'
p56
(dp57
S'rdf:resource'
p58
Vhttp://newyork.craigslist.org/mnh/stp/6060729434.html
p59
ssS'subtitle_detail'
p60
g0
(g1
g2
(dp61
g33
Vhttps://newyork.craigslist.org/search/stp?format=rss
p62
sg17
Vtext/html
p63
sg36
Nsg37
g9
stp64
Rp65
sS'title_detail'
p66
g0
(g1
g2
(dp67
g33
Vhttps://newyork.craigslist.org/search/stp?format=rss
p68
sg17
Vtext/plain
p69
sg36
Nsg37
g54
stp70
Rp71
sS'sy_updateperiod'
p72
Vhourly
p73
sS'entries'
p74
g9
sS'sy_updatefrequency'
p75
V6
p76
stp77
Rp78
sS'status'
p79
I301
sS'updated'
p80
S'Wed, 29 Mar 2017 04:46:59 GMT'
p81
sS'updated_parsed'
p82
ctime
struct_time
p83
((I2017
I3
I29
I4
I46
I59
I2
I88
I0
tp84
(dp85
tp86
Rp87
sS'encoding'
p88
Vutf-8
p89
sS'bozo'
p90
I0
sS'headers'
p91
(dp92
S'content-length'
p93
S'4545'
p94
sS'expires'
p95
S'Wed, 29 Mar 2017 05:01:59 GMT'
p96
sS'content-encoding'
p97
S'gzip'
p98
sS'strict-transport-security'
p99
S'max-age=86400'
p100
sS'vary'
p101
S'Accept-Encoding'
p102
sS'server'
p103
S'Apache'
p104
sS'last-modified'
p105
g81
sS'cache-control'
p106
S'max-age=900, public'
p107
sS'date'
p108
S'Wed, 29 Mar 2017 04:46:59 GMT'
p109
sS'x-frame-options'
p110
S'SAMEORIGIN'
p111
sS'content-type'
p112
S'application/rss+xml; charset=utf-8'
p113
ssg15
Vhttps://newyork.craigslist.org/search/stp?format=rss
p114
sS'version'
p115
Vrss10
p116
sg74
(lp117
g0
(g1
g2
(dp118
S'dc_source'
p119
Vhttp://newyork.craigslist.org/brk/stp/6064597241.html
p120
sS'summary_detail'
p121
g0
(g1
g2
(dp122
g33
Vhttps://newyork.craigslist.org/search/stp?format=rss
p123
sg17
g63
sg36
Nsg37
VHey there. My name is Chris. I'm 26, 5'9, average build, and Puerto Rican. I'm a nerd! By nerd I mean I watch a few anime, read mangas, comics, and play a card game! I know how to separate being a nerd/geek from reality. Actually most people can't te [...]
p124
stp125
Rp126
sg82
g83
((I2017
I3
I29
I3
I36
I24
I2
I88
I0
tp127
(dp128
tp129
Rp130
sg12
(lp131
g0
(g1
g2
(dp132
g15
Vhttp://newyork.craigslist.org/brk/stp/6064597241.html
p133
sg17
g18
sg19
g20
stp134
Rp135
asg80
V2017-03-28T23:36:24-04:00
p136
sg24
g133
sS'rights_detail'
p137
g0
(g1
g2
(dp138
g33
Vhttps://newyork.craigslist.org/search/stp?format=rss
p139
sg17
g35
sg36
Nsg37
Vcopyright 2017 craiglist
p140
stp141
Rp142
sS'enc_enclosure'
p143
(dp144
S'type'
p145
Vimage/jpeg
p146
sS'resource'
p147
Vhttps://images.craigslist.org/00808_jiw5r4qtqYE_300x300.jpg
p148
ssS'id'
p149
Vhttp://newyork.craigslist.org/brk/stp/6064597241.html
p150
sS'dc_type'
p151
Vtext
p152
sg36
Ven-us
p153
sS'published_parsed'
p154
g83
((I2017
I3
I29
I3
I36
I24
I2
I88
I0
tp155
(dp156
tp157
Rp158
sg53
VLooking for a fellow Nerd to chill with! - m4w (Brooklyn)
p159
sg55
g140
sS'summary'
p160
g124
sS'title_detail'
p161
g0
(g1
g2
(dp162
g33
Vhttps://newyork.craigslist.org/search/stp?format=rss
p163
sg17
g69
sg36
Nsg37
g159
stp164
Rp165
sS'published'
p166
V2017-03-28T23:36:24-04:00
p167
stp168
Rp169
ag0
(g1
g2
(dp170
S'dc_source'
p171
Vhttp://newyork.craigslist.org/mnh/stp/6024335858.html
p172
sS'summary_detail'
p173
g0
(g1
g2
(dp174
g33
Vhttps://newyork.craigslist.org/search/stp?format=rss
p175
sg17
g63
sg36
Nsg37
VHello, I'm a published author and journalist of a certain age. And I'm looking for a young woman writer who would like to be friends and who is maybe in search of a little guidance and mentoring. We can meet for coffee or wine. We can go to galleries [...]
p176
stp177
Rp178
sg82
g83
((I2017
I3
I29
I3
I34
I29
I2
I88
I0
tp179
(dp180
tp181
Rp182
sg12
(lp183
g0
(g1
g2
(dp184
g15
Vhttp://newyork.craigslist.org/mnh/stp/6024335858.html
p185
sg17
g18
sg19
g20
stp186
Rp187
asg80
V2017-03-28T23:34:29-04:00
p188
sg24
g185
sS'rights_detail'
p189
g0
(g1
g2
(dp190
g33
Vhttps://newyork.craigslist.org/search/stp?format=rss
p191
sg17
g35
sg36
Nsg37
Vcopyright 2017 craiglist
p192
stp193
Rp194
sS'enc_enclosure'
p195
(dp196
S'type'
p197
Vimage/jpeg
p198
sS'resource'
p199
Vhttps://images.craigslist.org/00J0J_foDTaef7Eun_300x300.jpg
p200
ssg149
Vhttp://newyork.craigslist.org/mnh/stp/6024335858.html
p201
sS'dc_type'
p202
Vtext
p203
sg36
Ven-us
p204
sg154
g83
((I2017
I3
I29
I3
I34
I29
I2
I88
I0
tp205
(dp206
tp207
Rp208
sg53
VAre You the Next Joan Didion, Renata Adler or Lillian Hellman? - m4w (Manhattan)
p209
sg55
g192
sg160
g176
sS'title_detail'
p210
g0
(g1
g2
(dp211
g33
Vhttps://newyork.craigslist.org/search/stp?format=rss
p212
sg17
g69
sg36
Nsg37
g209
stp213
Rp214
sg166
V2017-03-28T23:34:29-04:00
p215
stp216
Rp217
ag0
(g1
g2
(dp218
S'dc_source'
p219
Vhttp://newyork.craigslist.org/mnh/stp/6064555218.html
p220
sS'summary_detail'
p221
g0
(g1
g2
(dp222
g33
Vhttps://newyork.craigslist.org/search/stp?format=rss
p223
sg17
g63
sg36
Nsg37
VWould you like to relief stress today? \u000aI offer you a very relaxing massage. \u000aIn the comfort of your place. \u000aI'm young and good with my hands. \u000aI can't host. \u000aLow rate and good Job. \u000aLet me know.
p224
stp225
Rp226
sg82
g83
((I2017
I3
I29
I3
I28
I40
I2
I88
I0
tp227
(dp228
tp229
Rp230
sg12
(lp231
g0
(g1
g2
(dp232
g15
Vhttp://newyork.craigslist.org/mnh/stp/6064555218.html
p233
sg17
g18
sg19
g20
stp234
Rp235
asg80
V2017-03-28T23:28:40-04:00
p236
sg24
g233
sS'rights_detail'
p237
g0
(g1
g2
(dp238
g33
Vhttps://newyork.craigslist.org/search/stp?format=rss
p239
sg17
g35
sg36
Nsg37
Vcopyright 2017 craiglist
p240
stp241
Rp242
sg149
Vhttp://newyork.craigslist.org/mnh/stp/6064555218.html
p243
sS'dc_type'
p244
Vtext
p245
sg36
Ven-us
p246
sg154
g83
((I2017
I3
I29
I3
I28
I40
I2
I88
I0
tp247
(dp248
tp249
Rp250
sg53
VRelaxing massage for men - m4m (Queens or manhattan)
p251
sg55
g240
sg160
VWould you like to relief stress today? \u000aI offer you a very relaxing massage. \u000aIn the comfort of your place. \u000aI'm young and good with my hands. \u000aI can't host. \u000aLow rate and good Job. \u000aLet me know.
p252
sS'title_detail'
p253
g0
(g1
g2
(dp254
g33
Vhttps://newyork.craigslist.org/search/stp?format=rss
p255
sg17
g69
sg36
Nsg37
g251
stp256
Rp257
sg166
V2017-03-28T23:28:40-04:00
p258
stp259
Rp260
ag0
(g1
g2
(dp261
S'dc_source'
p262
Vhttp://newyork.craigslist.org/que/stp/6061688268.html
p263
sS'summary_detail'
p264
g0
(g1
g2
(dp265
g33
Vhttps://newyork.craigslist.org/search/stp?format=rss
p266
sg17
g63
sg36
Nsg37
VI'm looking for a white girl in her 20s interested in getting to know one another. \u000aI'm a man in my mid twenties. \u000aI live in Queens, you should too. \u000aI enjoy cuddling, eating, drinking soda, going to the beach, going to the movies. I drive.
p267
stp268
Rp269
sg82
g83
((I2017
I3
I29
I3
I20
I5
I2
I88
I0
tp270
(dp271
tp272
Rp273
sg12
(lp274
g0
(g1
g2
(dp275
g15
Vhttp://newyork.craigslist.org/que/stp/6061688268.html
p276
sg17
g18
sg19
g20
stp277
Rp278
asg80
V2017-03-28T23:20:05-04:00
p279
sg24
g276
sS'rights_detail'
p280
g0
(g1
g2
(dp281
g33
Vhttps://newyork.craigslist.org/search/stp?format=rss
p282
sg17
g35
sg36
Nsg37
Vcopyright 2017 craiglist
p283
stp284
Rp285
sg149
Vhttp://newyork.craigslist.org/que/stp/6061688268.html
p286
sS'dc_type'
p287
Vtext
p288
sg36
Ven-us
p289
sg154
g83
((I2017
I3
I29
I3
I20
I5
I2
I88
I0
tp290
(dp291
tp292
Rp293
sg53
VPlatonic White Girl - m4w (Queens)
p294
sg55
g283
sg160
VI'm looking for a white girl in her 20s interested in getting to know one another. \u000aI'm a man in my mid twenties. \u000aI live in Queens, you should too. \u000aI enjoy cuddling, eating, drinking soda, going to the beach, going to the movies. I drive.
p295
sS'title_detail'
p296
g0
(g1
g2
(dp297
g33
Vhttps://newyork.craigslist.org/search/stp?format=rss
p298
sg17
g69
sg36
Nsg37
g294
stp299
Rp300
sg166
V2017-03-28T23:20:05-04:00
p301
stp302
Rp303
ag0
(g1
g2
(dp304
S'dc_source'
p305
Vhttp://newyork.craigslist.org/mnh/stp/6054256441.html
p306
sS'summary_detail'
p307
g0
(g1
g2
(dp308
g33
Vhttps://newyork.craigslist.org/search/stp?format=rss
p309
sg17
g63
sg36
Nsg37
VHouseboy seeks work exchange for Live-In opportunity. \u000aGreat with Home / Office Organizing, Housekeeping, Light-Cooking, Yard-Care, Pet-Care, Clothing Maintenance.. \u000aHave lived in the NYC area for over ten years. \u000aGot laid off from a job and living s [...]
p310
stp311
Rp312
sg82
g83
((I2017
I3
I29
I3
I19
I33
I2
I88
I0
tp313
(dp314
tp315
Rp316
sg12
(lp317
g0
(g1
g2
(dp318
g15
Vhttp://newyork.craigslist.org/mnh/stp/6054256441.html
p319
sg17
g18
sg19
g20
stp320
Rp321
asg80
V2017-03-28T23:19:33-04:00
p322
sg24
g319
sS'rights_detail'
p323
g0
(g1
g2
(dp324
g33
Vhttps://newyork.craigslist.org/search/stp?format=rss
p325
sg17
g35
sg36
Nsg37
Vcopyright 2017 craiglist
p326
stp327
Rp328
sg149
Vhttp://newyork.craigslist.org/mnh/stp/6054256441.html
p329
sS'dc_type'
p330
Vtext
p331
sg36
Ven-us
p332
sg154
g83
((I2017
I3
I29
I3
I19
I33
I2
I88
I0
tp333
(dp334
tp335
Rp336
sg53
VHouseboy Seeks Exchange - m4m
p337
sg55
g326
sg160
VHouseboy seeks work exchange for Live-In opportunity. \u000aGreat with Home / Office Organizing, Housekeeping, Light-Cooking, Yard-Care, Pet-Care, Clothing Maintenance.. \u000aHave lived in the NYC area for over ten years. \u000aGot laid off from a job and living s [...]
p338
sS'title_detail'
p339
g0
(g1
g2
(dp340
g33
Vhttps://newyork.craigslist.org/search/stp?format=rss
p341
sg17
g69
sg36
Nsg37
g337
stp342
Rp343
sg166
V2017-03-28T23:19:33-04:00
p344
stp345
Rp346
ag0
(g1
g2
(dp347
S'dc_source'
p348
Vhttp://newyork.craigslist.org/mnh/stp/6064598926.html
p349
sS'summary_detail'
p350
g0
(g1
g2
(dp351
g33
Vhttps://newyork.craigslist.org/search/stp?format=rss
p352
sg17
g63
sg36
Nsg37
Vi dont know why im posting this and in which category should i put what im looking for. lol &#128514; \u000ajust wondering if there are guys here who loves to travel. i have a regular job and usually gets a 2day off. im just interested in going out of tow [...]
p353
stp354
Rp355
sg82
g83
((I2017
I3
I29
I3
I19
I25
I2
I88
I0
tp356
(dp357
tp358
Rp359
sg12
(lp360
g0
(g1
g2
(dp361
g15
Vhttp://newyork.craigslist.org/mnh/stp/6064598926.html
p362
sg17
g18
sg19
g20
stp363
Rp364
asg80
V2017-03-28T23:19:25-04:00
p365
sg24
g362
sS'rights_detail'
p366
g0
(g1
g2
(dp367
g33
Vhttps://newyork.craigslist.org/search/stp?format=rss
p368
sg17
g35
sg36
Nsg37
Vcopyright 2017 craiglist
p369
stp370
Rp371
sg149
Vhttp://newyork.craigslist.org/mnh/stp/6064598926.html
p372
sS'dc_type'
p373
Vtext
p374
sg36
Ven-us
p375
sg154
g83
((I2017
I3
I29
I3
I19
I25
I2
I88
I0
tp376
(dp377
tp378
Rp379
sg53
Vtravel buddy - w4m (Upper East Side)
p380
sg55
g369
sg160
Vi dont know why im posting this and in which category should i put what im looking for. lol &#128514; \u000ajust wondering if there are guys here who loves to travel. i have a regular job and usually gets a 2day off. im just interested in going out of tow [...]
p381
sS'title_detail'
p382
g0
(g1
g2
(dp383
g33
Vhttps://newyork.craigslist.org/search/stp?format=rss
p384
sg17
g69
sg36
Nsg37
g380
stp385
Rp386
sg166
V2017-03-28T23:19:25-04:00
p387
stp388
Rp389
ag0
(g1
g2
(dp390
S'dc_source'
p391
Vhttp://newyork.craigslist.org/stn/stp/6064603984.html
p392
sS'summary_detail'
p393
g0
(g1
g2
(dp394
g33
Vhttps://newyork.craigslist.org/search/stp?format=rss
p395
sg17
g63
sg36
Nsg37
VWednesday is the day off, looking for fun, interesting person(s) to walk/jog, movies, bike rides, coffee, hike, or something else platonic.
p396
stp397
Rp398
sg82
g83
((I2017
I3
I29
I3
I17
I3
I2
I88
I0
tp399
(dp400
tp401
Rp402
sg12
(lp403
g0
(g1
g2
(dp404
g15
Vhttp://newyork.craigslist.org/stn/stp/6064603984.html
p405
sg17
g18
sg19
g20
stp406
Rp407
asg80
V2017-03-28T23:17:03-04:00
p408
sg24
g405
sS'rights_detail'
p409
g0
(g1
g2
(dp410
g33
Vhttps://newyork.craigslist.org/search/stp?format=rss
p411
sg17
g35
sg36
Nsg37
Vcopyright 2017 craiglist
p412
stp413
Rp414
sg149
Vhttp://newyork.craigslist.org/stn/stp/6064603984.html
p415
sS'dc_type'
p416
Vtext
p417
sg36
Ven-us
p418
sg154
g83
((I2017
I3
I29
I3
I17
I3
I2
I88
I0
tp419
(dp420
tp421
Rp422
sg53
VWednesday's child - m4w
p423
sg55
g412
sg160
g396
sS'title_detail'
p424
g0
(g1
g2
(dp425
g33
Vhttps://newyork.craigslist.org/search/stp?format=rss
p426
sg17
g69
sg36
Nsg37
g423
stp427
Rp428
sg166
V2017-03-28T23:17:03-04:00
p429
stp430
Rp431
ag0
(g1
g2
(dp432
S'dc_source'
p433
Vhttp://newyork.craigslist.org/mnh/stp/6054464640.html
p434
sS'summary_detail'
p435
g0
(g1
g2
(dp436
g33
Vhttps://newyork.craigslist.org/search/stp?format=rss
p437
sg17
g63
sg36
Nsg37
VAre you a busy professional who is looking for someone to keep the house organized and clean? \u000aDo you find your active lifestyle leaves you little or no time to get your errands done? \u000aWell, I may be just what you NEED! I can clean your apartment, do [...]
p438
stp439
Rp440
sg82
g83
((I2017
I3
I29
I3
I16
I24
I2
I88
I0
tp441
(dp442
tp443
Rp444
sg12
(lp445
g0
(g1
g2
(dp446
g15
Vhttp://newyork.craigslist.org/mnh/stp/6054464640.html
p447
sg17
g18
sg19
g20
stp448
Rp449
asg80
V2017-03-28T23:16:24-04:00
p450
sg24
g447
sS'rights_detail'
p451
g0
(g1
g2
(dp452
g33
Vhttps://newyork.craigslist.org/search/stp?format=rss
p453
sg17
g35
sg36
Nsg37
Vcopyright 2017 craiglist
p454
stp455
Rp456
sg149
Vhttp://newyork.craigslist.org/mnh/stp/6054464640.html
p457
sS'dc_type'
p458
Vtext
p459
sg36
Ven-us
p460
sg154
g83
((I2017
I3
I29
I3
I16
I24
I2
I88
I0
tp461
(dp462
tp463
Rp464
sg53
VGay Male Apartment Cleaner / Organizer / Personal Assistant - m4m (UWS/Midtown/HK/Chelsea)
p465
sg55
g454
sg160
VAre you a busy professional who is looking for someone to keep the house organized and clean? \u000aDo you find your active lifestyle leaves you little or no time to get your errands done? \u000aWell, I may be just what you NEED! I can clean your apartment, do [...]
p466
sS'title_detail'
p467
g0
(g1
g2
(dp468
g33
Vhttps://newyork.craigslist.org/search/stp?format=rss
p469
sg17
g69
sg36
Nsg37
g465
stp470
Rp471
sg166
V2017-03-28T23:16:24-04:00
p472
stp473
Rp474
ag0
(g1
g2
(dp475
S'dc_source'
p476
Vhttp://newyork.craigslist.org/mnh/stp/6030148920.html
p477
sS'summary_detail'
p478
g0
(g1
g2
(dp479
g33
Vhttps://newyork.craigslist.org/search/stp?format=rss
p480
sg17
g63
sg36
Nsg37
VHello there, \u000aLet's take it slow with romance &amp; dance. It is time to transcend the dancing magic with intense passion, romance, and excitement to "have the time of our lives" and dancing creation from the ground up. \u000aSeeking a open minded single  [...]
p481
stp482
Rp483
sg82
g83
((I2017
I3
I29
I3
I15
I14
I2
I88
I0
tp484
(dp485
tp486
Rp487
sg12
(lp488
g0
(g1
g2
(dp489
g15
Vhttp://newyork.craigslist.org/mnh/stp/6030148920.html
p490
sg17
g18
sg19
g20
stp491
Rp492
asg80
V2017-03-28T23:15:14-04:00
p493
sg24
g490
sS'rights_detail'
p494
g0
(g1
g2
(dp495
g33
Vhttps://newyork.craigslist.org/search/stp?format=rss
p496
sg17
g35
sg36
Nsg37
Vcopyright 2017 craiglist
p497
stp498
Rp499
sg149
Vhttp://newyork.craigslist.org/mnh/stp/6030148920.html
p500
sS'dc_type'
p501
Vtext
p502
sg36
Ven-us
p503
sg154
g83
((I2017
I3
I29
I3
I15
I14
I2
I88
I0
tp504
(dp505
tp506
Rp507
sg53
VRomance Dancing Friend/Partner - m4w
p508
sg55
g497
sg160
VHello there, \u000aLet's take it slow with romance &amp; dance. It is time to transcend the dancing magic with intense passion, romance, and excitement to "have the time of our lives" and dancing creation from the ground up. \u000aSeeking a open minded single  [...]
p509
sS'title_detail'
p510
g0
(g1
g2
(dp511
g33
Vhttps://newyork.craigslist.org/search/stp?format=rss
p512
sg17
g69
sg36
Nsg37
g508
stp513
Rp514
sg166
V2017-03-28T23:15:14-04:00
p515
stp516
Rp517
ag0
(g1
g2
(dp518
S'dc_source'
p519
Vhttp://newyork.craigslist.org/mnh/stp/6064602277.html
p520
sS'summary_detail'
p521
g0
(g1
g2
(dp522
g33
Vhttps://newyork.craigslist.org/search/stp?format=rss
p523
sg17
g63
sg36
Nsg37
VCan anyone provide a free, I legit massage? \u000aI'm a clean-cut, white guy, in shape sore from gym. looking for a real, deep tissue massage at your place \u000aTable preferred \u000aPlease reply with stats, a picture and location.
p524
stp525
Rp526
sg82
g83
((I2017
I3
I29
I3
I14
I48
I2
I88
I0
tp527
(dp528
tp529
Rp530
sg12
(lp531
g0
(g1
g2
(dp532
g15
Vhttp://newyork.craigslist.org/mnh/stp/6064602277.html
p533
sg17
g18
sg19
g20
stp534
Rp535
asg80
V2017-03-28T23:14:48-04:00
p536
sg24
g533
sS'rights_detail'
p537
g0
(g1
g2
(dp538
g33
Vhttps://newyork.craigslist.org/search/stp?format=rss
p539
sg17
g35
sg36
Nsg37
Vcopyright 2017 craiglist
p540
stp541
Rp542
sS'enc_enclosure'
p543
(dp544
S'type'
p545
Vimage/jpeg
p546
sS'resource'
p547
Vhttps://images.craigslist.org/01313_eFTnJQLY6a3_300x300.jpg
p548
ssg149
Vhttp://newyork.craigslist.org/mnh/stp/6064602277.html
p549
sS'dc_type'
p550
Vtext
p551
sg36
Ven-us
p552
sg154
g83
((I2017
I3
I29
I3
I14
I48
I2
I88
I0
tp553
(dp554
tp555
Rp556
sg53
VI need a real legit massage please! - m4m (You host)
p557
sg55
g540
sg160
VCan anyone provide a free, I legit massage? \u000aI'm a clean-cut, white guy, in shape sore from gym. looking for a real, deep tissue massage at your place \u000aTable preferred \u000aPlease reply with stats, a picture and location.
p558
sS'title_detail'
p559
g0
(g1
g2
(dp560
g33
Vhttps://newyork.craigslist.org/search/stp?format=rss
p561
sg17
g69
sg36
Nsg37
g557
stp562
Rp563
sg166
V2017-03-28T23:14:48-04:00
p564
stp565
Rp566
ag0
(g1
g2
(dp567
S'dc_source'
p568
Vhttp://newyork.craigslist.org/mnh/stp/6064601051.html
p569
sS'summary_detail'
p570
g0
(g1
g2
(dp571
g33
Vhttps://newyork.craigslist.org/search/stp?format=rss
p572
sg17
g63
sg36
Nsg37
VWell to be extremely honest, im not keen on doing this, but what can i say? Im extremely shy, and to be sincere, im a bit frightened to.. have conversations, interactions that are essential to growing up i guess. Im this way cause im not comfortable  [...]
p573
stp574
Rp575
sg82
g83
((I2017
I3
I29
I3
I13
I6
I2
I88
I0
tp576
(dp577
tp578
Rp579
sg12
(lp580
g0
(g1
g2
(dp581
g15
Vhttp://newyork.craigslist.org/mnh/stp/6064601051.html
p582
sg17
g18
sg19
g20
stp583
Rp584
asg80
V2017-03-28T23:13:06-04:00
p585
sg24
g582
sS'rights_detail'
p586
g0
(g1
g2
(dp587
g33
Vhttps://newyork.craigslist.org/search/stp?format=rss
p588
sg17
g35
sg36
Nsg37
Vcopyright 2017 craiglist
p589
stp590
Rp591
sg149
Vhttp://newyork.craigslist.org/mnh/stp/6064601051.html
p592
sS'dc_type'
p593
Vtext
p594
sg36
Ven-us
p595
sg154
g83
((I2017
I3
I29
I3
I13
I6
I2
I88
I0
tp596
(dp597
tp598
Rp599
sg53
VFriends, nothing more - w4m (Upper East Side)
p600
sg55
g589
sg160
g573
sS'title_detail'
p601
g0
(g1
g2
(dp602
g33
Vhttps://newyork.craigslist.org/search/stp?format=rss
p603
sg17
g69
sg36
Nsg37
g600
stp604
Rp605
sg166
V2017-03-28T23:13:06-04:00
p606
stp607
Rp608
ag0
(g1
g2
(dp609
S'dc_source'
p610
Vhttp://newyork.craigslist.org/brk/stp/6027513606.html
p611
sS'summary_detail'
p612
g0
(g1
g2
(dp613
g33
Vhttps://newyork.craigslist.org/search/stp?format=rss
p614
sg17
g63
sg36
Nsg37
VSeeking a young cute BBw for ltr with no strings. \u000aAges 25-35 only. \u000aKiK Rickdaboss09 if interested. \u000aIf something sparks lets see where it goes. \u000aReply with a pic to get a reply. \u000aPlease be from Brooklyn. \u000aThis for tomorrow Fri March 29th.
p615
stp616
Rp617
sg82
g83
((I2017
I3
I29
I3
I6
I45
I2
I88
I0
tp618
(dp619
tp620
Rp621
sg12
(lp622
g0
(g1
g2
(dp623
g15
Vhttp://newyork.craigslist.org/brk/stp/6027513606.html
p624
sg17
g18
sg19
g20
stp625
Rp626
asg80
V2017-03-28T23:06:45-04:00
p627
sg24
g624
sS'rights_detail'
p628
g0
(g1
g2
(dp629
g33
Vhttps://newyork.craigslist.org/search/stp?format=rss
p630
sg17
g35
sg36
Nsg37
Vcopyright 2017 craiglist
p631
stp632
Rp633
sg149
Vhttp://newyork.craigslist.org/brk/stp/6027513606.html
p634
sS'dc_type'
p635
Vtext
p636
sg36
Ven-us
p637
sg154
g83
((I2017
I3
I29
I3
I6
I45
I2
I88
I0
tp638
(dp639
tp640
Rp641
sg53
VAny cute Bbw's? - m4w (Brooklyn)
p642
sg55
g631
sg160
VSeeking a young cute BBw for ltr with no strings. \u000aAges 25-35 only. \u000aKiK Rickdaboss09 if interested. \u000aIf something sparks lets see where it goes. \u000aReply with a pic to get a reply. \u000aPlease be from Brooklyn. \u000aThis for tomorrow Fri March 29th.
p643
sS'title_detail'
p644
g0
(g1
g2
(dp645
g33
Vhttps://newyork.craigslist.org/search/stp?format=rss
p646
sg17
g69
sg36
Nsg37
g642
stp647
Rp648
sg166
V2017-03-28T23:06:45-04:00
p649
stp650
Rp651
ag0
(g1
g2
(dp652
S'dc_source'
p653
Vhttp://newyork.craigslist.org/lgi/stp/6042399752.html
p654
sS'summary_detail'
p655
g0
(g1
g2
(dp656
g33
Vhttps://newyork.craigslist.org/search/stp?format=rss
p657
sg17
g63
sg36
Nsg37
VHI have you ever thought about having a really great full body rubdown - now is your chance to give it a try - I need to practice newly learned massage techniques - and you can benefit by getting a free massage.. I come to you so you can relax and en [...]
p658
stp659
Rp660
sg82
g83
((I2017
I3
I29
I3
I3
I44
I2
I88
I0
tp661
(dp662
tp663
Rp664
sg12
(lp665
g0
(g1
g2
(dp666
g15
Vhttp://newyork.craigslist.org/lgi/stp/6042399752.html
p667
sg17
g18
sg19
g20
stp668
Rp669
asg80
V2017-03-28T23:03:44-04:00
p670
sg24
g667
sS'rights_detail'
p671
g0
(g1
g2
(dp672
g33
Vhttps://newyork.craigslist.org/search/stp?format=rss
p673
sg17
g35
sg36
Nsg37
Vcopyright 2017 craiglist
p674
stp675
Rp676
sg149
Vhttp://newyork.craigslist.org/lgi/stp/6042399752.html
p677
sS'dc_type'
p678
Vtext
p679
sg36
Ven-us
p680
sg154
g83
((I2017
I3
I29
I3
I3
I44
I2
I88
I0
tp681
(dp682
tp683
Rp684
sg53
VFree Massage - m4w
p685
sg55
g674
sg160
g658
sS'title_detail'
p686
g0
(g1
g2
(dp687
g33
Vhttps://newyork.craigslist.org/search/stp?format=rss
p688
sg17
g69
sg36
Nsg37
g685
stp689
Rp690
sg166
V2017-03-28T23:03:44-04:00
p691
stp692
Rp693
ag0
(g1
g2
(dp694
S'dc_source'
p695
Vhttp://newyork.craigslist.org/lgi/stp/6050188139.html
p696
sS'summary_detail'
p697
g0
(g1
g2
(dp698
g33
Vhttps://newyork.craigslist.org/search/stp?format=rss
p699
sg17
g63
sg36
Nsg37
VHI have you ever thought about having a really great full body rubdown - now is your chance to give it a try - I need to practice newly learned massage techniques - and you can benefit by getting a free massage.. I come to you so you can relax and en [...]
p700
stp701
Rp702
sg82
g83
((I2017
I3
I29
I3
I3
I43
I2
I88
I0
tp703
(dp704
tp705
Rp706
sg12
(lp707
g0
(g1
g2
(dp708
g15
Vhttp://newyork.craigslist.org/lgi/stp/6050188139.html
p709
sg17
g18
sg19
g20
stp710
Rp711
asg80
V2017-03-28T23:03:43-04:00
p712
sg24
g709
sS'rights_detail'
p713
g0
(g1
g2
(dp714
g33
Vhttps://newyork.craigslist.org/search/stp?format=rss
p715
sg17
g35
sg36
Nsg37
Vcopyright 2017 craiglist
p716
stp717
Rp718
sg149
Vhttp://newyork.craigslist.org/lgi/stp/6050188139.html
p719
sS'dc_type'
p720
Vtext
p721
sg36
Ven-us
p722
sg154
g83
((I2017
I3
I29
I3
I3
I43
I2
I88
I0
tp723
(dp724
tp725
Rp726
sg53
VFree Erotic Massage - m4w
p727
sg55
g716
sg160
g700
sS'title_detail'
p728
g0
(g1
g2
(dp729
g33
Vhttps://newyork.craigslist.org/search/stp?format=rss
p730
sg17
g69
sg36
Nsg37
g727
stp731
Rp732
sg166
V2017-03-28T23:03:43-04:00
p733
stp734
Rp735
ag0
(g1
g2
(dp736
S'dc_source'
p737
Vhttp://newyork.craigslist.org/que/stp/6051302064.html
p738
sS'summary_detail'
p739
g0
(g1
g2
(dp740
g33
Vhttps://newyork.craigslist.org/search/stp?format=rss
p741
sg17
g63
sg36
Nsg37
Vtake a break from day to day stress and strain - let me come over to you and give you a very relaxing full body rubdown with my special oral technique that will release you built up stress.. - you'll be happy you gave it a try-- \u000aemail me back for de [...]
p742
stp743
Rp744
sg82
g83
((I2017
I3
I29
I3
I3
I27
I2
I88
I0
tp745
(dp746
tp747
Rp748
sg12
(lp749
g0
(g1
g2
(dp750
g15
Vhttp://newyork.craigslist.org/que/stp/6051302064.html
p751
sg17
g18
sg19
g20
stp752
Rp753
asg80
V2017-03-28T23:03:27-04:00
p754
sg24
g751
sS'rights_detail'
p755
g0
(g1
g2
(dp756
g33
Vhttps://newyork.craigslist.org/search/stp?format=rss
p757
sg17
g35
sg36
Nsg37
Vcopyright 2017 craiglist
p758
stp759
Rp760
sg149
Vhttp://newyork.craigslist.org/que/stp/6051302064.html
p761
sS'dc_type'
p762
Vtext
p763
sg36
Ven-us
p764
sg154
g83
((I2017
I3
I29
I3
I3
I27
I2
I88
I0
tp765
(dp766
tp767
Rp768
sg53
VFree Oil Massage - m4w
p769
sg55
g758
sg160
Vtake a break from day to day stress and strain - let me come over to you and give you a very relaxing full body rubdown with my special oral technique that will release you built up stress.. - you'll be happy you gave it a try-- \u000aemail me back for de [...]
p770
sS'title_detail'
p771
g0
(g1
g2
(dp772
g33
Vhttps://newyork.craigslist.org/search/stp?format=rss
p773
sg17
g69
sg36
Nsg37
g769
stp774
Rp775
sg166
V2017-03-28T23:03:27-04:00
p776
stp777
Rp778
ag0
(g1
g2
(dp779
S'dc_source'
p780
Vhttp://newyork.craigslist.org/mnh/stp/6064579926.html
p781
sS'summary_detail'
p782
g0
(g1
g2
(dp783
g33
Vhttps://newyork.craigslist.org/search/stp?format=rss
p784
sg17
g63
sg36
Nsg37
VWhite professional male with prior experience in ANR and ABF seeks curious or experienced female for breast play and nursing. We can talk further upon your reply.. \u000aPlease be serious as I am. Curious? Let's talk further...
p785
stp786
Rp787
sg82
g83
((I2017
I3
I29
I2
I47
I32
I2
I88
I0
tp788
(dp789
tp790
Rp791
sg12
(lp792
g0
(g1
g2
(dp793
g15
Vhttp://newyork.craigslist.org/mnh/stp/6064579926.html
p794
sg17
g18
sg19
g20
stp795
Rp796
asg80
V2017-03-28T22:47:32-04:00
p797
sg24
g794
sS'rights_detail'
p798
g0
(g1
g2
(dp799
g33
Vhttps://newyork.craigslist.org/search/stp?format=rss
p800
sg17
g35
sg36
Nsg37
Vcopyright 2017 craiglist
p801
stp802
Rp803
sg149
Vhttp://newyork.craigslist.org/mnh/stp/6064579926.html
p804
sS'dc_type'
p805
Vtext
p806
sg36
Ven-us
p807
sg154
g83
((I2017
I3
I29
I2
I47
I32
I2
I88
I0
tp808
(dp809
tp810
Rp811
sg53
VProfessional discreet male seeks abf/anr female partner - m4w (Midtown West)
p812
sg55
g801
sg160
VWhite professional male with prior experience in ANR and ABF seeks curious or experienced female for breast play and nursing. We can talk further upon your reply.. \u000aPlease be serious as I am. Curious? Let's talk further...
p813
sS'title_detail'
p814
g0
(g1
g2
(dp815
g33
Vhttps://newyork.craigslist.org/search/stp?format=rss
p816
sg17
g69
sg36
Nsg37
g812
stp817
Rp818
sg166
V2017-03-28T22:47:32-04:00
p819
stp820
Rp821
ag0
(g1
g2
(dp822
S'dc_source'
p823
Vhttp://newyork.craigslist.org/mnh/stp/6064577583.html
p824
sS'summary_detail'
p825
g0
(g1
g2
(dp826
g33
Vhttps://newyork.craigslist.org/search/stp?format=rss
p827
sg17
g63
sg36
Nsg37
VHi all, \u000aIm a girl who went from 500 pounds to a now 178 pounds. Ive always been the girl everyone bullied and basically my self esteem is in the pits. Im unnatractive, gotta be honest right? and im looking for someone who goes to Hunter College. Im  [...]
p828
stp829
Rp830
sg82
g83
((I2017
I3
I29
I2
I44
I56
I2
I88
I0
tp831
(dp832
tp833
Rp834
sg12
(lp835
g0
(g1
g2
(dp836
g15
Vhttp://newyork.craigslist.org/mnh/stp/6064577583.html
p837
sg17
g18
sg19
g20
stp838
Rp839
asg80
V2017-03-28T22:44:56-04:00
p840
sg24
g837
sS'rights_detail'
p841
g0
(g1
g2
(dp842
g33
Vhttps://newyork.craigslist.org/search/stp?format=rss
p843
sg17
g35
sg36
Nsg37
Vcopyright 2017 craiglist
p844
stp845
Rp846
sg149
Vhttp://newyork.craigslist.org/mnh/stp/6064577583.html
p847
sS'dc_type'
p848
Vtext
p849
sg36
Ven-us
p850
sg154
g83
((I2017
I3
I29
I2
I44
I56
I2
I88
I0
tp851
(dp852
tp853
Rp854
sg53
VJust looking for a friend - w4m
p855
sg55
g844
sg160
VHi all, \u000aIm a girl who went from 500 pounds to a now 178 pounds. Ive always been the girl everyone bullied and basically my self esteem is in the pits. Im unnatractive, gotta be honest right? and im looking for someone who goes to Hunter College. Im  [...]
p856
sS'title_detail'
p857
g0
(g1
g2
(dp858
g33
Vhttps://newyork.craigslist.org/search/stp?format=rss
p859
sg17
g69
sg36
Nsg37
g855
stp860
Rp861
sg166
V2017-03-28T22:44:56-04:00
p862
stp863
Rp864
ag0
(g1
g2
(dp865
S'dc_source'
p866
Vhttp://newyork.craigslist.org/mnh/stp/6050433647.html
p867
sS'summary_detail'
p868
g0
(g1
g2
(dp869
g33
Vhttps://newyork.craigslist.org/search/stp?format=rss
p870
sg17
g63
sg36
Nsg37
VDon't Spend Another Day as a Single Woman! \u000aLet's see what we can do about that! \u000aI'm NOT looking for a one nighter or a fling, but rather a meaningful relationship. \u000aBased on Trust and Honesty. \u000aI would LOVE to be MARRIED by the Valentine's Day next [...]
p871
stp872
Rp873
sg82
g83
((I2017
I3
I29
I2
I43
I40
I2
I88
I0
tp874
(dp875
tp876
Rp877
sg12
(lp878
g0
(g1
g2
(dp879
g15
Vhttp://newyork.craigslist.org/mnh/stp/6050433647.html
p880
sg17
g18
sg19
g20
stp881
Rp882
asg80
V2017-03-28T22:43:40-04:00
p883
sg24
g880
sS'rights_detail'
p884
g0
(g1
g2
(dp885
g33
Vhttps://newyork.craigslist.org/search/stp?format=rss
p886
sg17
g35
sg36
Nsg37
Vcopyright 2017 craiglist
p887
stp888
Rp889
sS'enc_enclosure'
p890
(dp891
S'type'
p892
Vimage/jpeg
p893
sS'resource'
p894
Vhttps://images.craigslist.org/00w0w_d8rmCacm7kE_300x300.jpg
p895
ssg149
Vhttp://newyork.craigslist.org/mnh/stp/6050433647.html
p896
sS'dc_type'
p897
Vtext
p898
sg36
Ven-us
p899
sg154
g83
((I2017
I3
I29
I2
I43
I40
I2
I88
I0
tp900
(dp901
tp902
Rp903
sg53
VFriendship or More - Marriage - LTR- Green Card - Stay in the USA - m4w (New York)
p904
sg55
g887
sg160
VDon't Spend Another Day as a Single Woman! \u000aLet's see what we can do about that! \u000aI'm NOT looking for a one nighter or a fling, but rather a meaningful relationship. \u000aBased on Trust and Honesty. \u000aI would LOVE to be MARRIED by the Valentine's Day next [...]
p905
sS'title_detail'
p906
g0
(g1
g2
(dp907
g33
Vhttps://newyork.craigslist.org/search/stp?format=rss
p908
sg17
g69
sg36
Nsg37
g904
stp909
Rp910
sg166
V2017-03-28T22:43:40-04:00
p911
stp912
Rp913
ag0
(g1
g2
(dp914
S'dc_source'
p915
Vhttp://newyork.craigslist.org/mnh/stp/6054504123.html
p916
sS'summary_detail'
p917
g0
(g1
g2
(dp918
g33
Vhttps://newyork.craigslist.org/search/stp?format=rss
p919
sg17
g63
sg36
Nsg37
VDon't Spend Another Day as a Single Woman! \u000aLet's see what we can do about that! \u000aI'm NOT looking for a one nighter or a fling, but rather a meaningful relationship. \u000aBased on Trust and Honesty. \u000aI would LOVE to be MARRIED by the Valentine's Day next [...]
p920
stp921
Rp922
sg82
g83
((I2017
I3
I29
I2
I43
I31
I2
I88
I0
tp923
(dp924
tp925
Rp926
sg12
(lp927
g0
(g1
g2
(dp928
g15
Vhttp://newyork.craigslist.org/mnh/stp/6054504123.html
p929
sg17
g18
sg19
g20
stp930
Rp931
asg80
V2017-03-28T22:43:31-04:00
p932
sg24
g929
sS'rights_detail'
p933
g0
(g1
g2
(dp934
g33
Vhttps://newyork.craigslist.org/search/stp?format=rss
p935
sg17
g35
sg36
Nsg37
Vcopyright 2017 craiglist
p936
stp937
Rp938
sS'enc_enclosure'
p939
(dp940
S'type'
p941
Vimage/jpeg
p942
sS'resource'
p943
Vhttps://images.craigslist.org/00w0w_d8rmCacm7kE_300x300.jpg
p944
ssg149
Vhttp://newyork.craigslist.org/mnh/stp/6054504123.html
p945
sS'dc_type'
p946
Vtext
p947
sg36
Ven-us
p948
sg154
g83
((I2017
I3
I29
I2
I43
I31
I2
I88
I0
tp949
(dp950
tp951
Rp952
sg53
VFriendship or More - Lacking Commitment - Let's Get Married!!! - m4w (New York)
p953
sg55
g936
sg160
VDon't Spend Another Day as a Single Woman! \u000aLet's see what we can do about that! \u000aI'm NOT looking for a one nighter or a fling, but rather a meaningful relationship. \u000aBased on Trust and Honesty. \u000aI would LOVE to be MARRIED by the Valentine's Day next [...]
p954
sS'title_detail'
p955
g0
(g1
g2
(dp956
g33
Vhttps://newyork.craigslist.org/search/stp?format=rss
p957
sg17
g69
sg36
Nsg37
g953
stp958
Rp959
sg166
V2017-03-28T22:43:31-04:00
p960
stp961
Rp962
ag0
(g1
g2
(dp963
S'dc_source'
p964
Vhttp://newyork.craigslist.org/mnh/stp/6054540677.html
p965
sS'summary_detail'
p966
g0
(g1
g2
(dp967
g33
Vhttps://newyork.craigslist.org/search/stp?format=rss
p968
sg17
g63
sg36
Nsg37
VDon't Spend Another Day as a Single Woman! \u000aLet's see what we can do about that! \u000aI'm NOT looking for a one nighter or a fling, but rather a meaningful relationship. \u000aBased on Trust and Honesty. \u000aI would LOVE to be MARRIED by the Valentine's Day next [...]
p969
stp970
Rp971
sg82
g83
((I2017
I3
I29
I2
I43
I25
I2
I88
I0
tp972
(dp973
tp974
Rp975
sg12
(lp976
g0
(g1
g2
(dp977
g15
Vhttp://newyork.craigslist.org/mnh/stp/6054540677.html
p978
sg17
g18
sg19
g20
stp979
Rp980
asg80
V2017-03-28T22:43:25-04:00
p981
sg24
g978
sS'rights_detail'
p982
g0
(g1
g2
(dp983
g33
Vhttps://newyork.craigslist.org/search/stp?format=rss
p984
sg17
g35
sg36
Nsg37
Vcopyright 2017 craiglist
p985
stp986
Rp987
sS'enc_enclosure'
p988
(dp989
S'type'
p990
Vimage/jpeg
p991
sS'resource'
p992
Vhttps://images.craigslist.org/00w0w_d8rmCacm7kE_300x300.jpg
p993
ssg149
Vhttp://newyork.craigslist.org/mnh/stp/6054540677.html
p994
sS'dc_type'
p995
Vtext
p996
sg36
Ven-us
p997
sg154
g83
((I2017
I3
I29
I2
I43
I25
I2
I88
I0
tp998
(dp999
tp1000
Rp1001
sg53
VFriendship or more - Don't Spend Another Day as a Single Woman - m4w (New York)
p1002
sg55
g985
sg160
VDon't Spend Another Day as a Single Woman! \u000aLet's see what we can do about that! \u000aI'm NOT looking for a one nighter or a fling, but rather a meaningful relationship. \u000aBased on Trust and Honesty. \u000aI would LOVE to be MARRIED by the Valentine's Day next [...]
p1003
sS'title_detail'
p1004
g0
(g1
g2
(dp1005
g33
Vhttps://newyork.craigslist.org/search/stp?format=rss
p1006
sg17
g69
sg36
Nsg37
g1002
stp1007
Rp1008
sg166
V2017-03-28T22:43:25-04:00
p1009
stp1010
Rp1011
ag0
(g1
g2
(dp1012
S'dc_source'
p1013
Vhttp://newyork.craigslist.org/mnh/stp/6057631055.html
p1014
sS'summary_detail'
p1015
g0
(g1
g2
(dp1016
g33
Vhttps://newyork.craigslist.org/search/stp?format=rss
p1017
sg17
g63
sg36
Nsg37
VDon't Spend Another Day as a Single Woman! \u000aLet's see what we can do about that! \u000aI'm NOT looking for a one nighter or a fling, but rather a meaningful relationship. \u000aBased on Trust and Honesty. \u000aI would LOVE to be MARRIED by the Valentine's Day next [...]
p1018
stp1019
Rp1020
sg82
g83
((I2017
I3
I29
I2
I43
I19
I2
I88
I0
tp1021
(dp1022
tp1023
Rp1024
sg12
(lp1025
g0
(g1
g2
(dp1026
g15
Vhttp://newyork.craigslist.org/mnh/stp/6057631055.html
p1027
sg17
g18
sg19
g20
stp1028
Rp1029
asg80
V2017-03-28T22:43:19-04:00
p1030
sg24
g1027
sS'rights_detail'
p1031
g0
(g1
g2
(dp1032
g33
Vhttps://newyork.craigslist.org/search/stp?format=rss
p1033
sg17
g35
sg36
Nsg37
Vcopyright 2017 craiglist
p1034
stp1035
Rp1036
sS'enc_enclosure'
p1037
(dp1038
S'type'
p1039
Vimage/jpeg
p1040
sS'resource'
p1041
Vhttps://images.craigslist.org/00w0w_d8rmCacm7kE_300x300.jpg
p1042
ssg149
Vhttp://newyork.craigslist.org/mnh/stp/6057631055.html
p1043
sS'dc_type'
p1044
Vtext
p1045
sg36
Ven-us
p1046
sg154
g83
((I2017
I3
I29
I2
I43
I19
I2
I88
I0
tp1047
(dp1048
tp1049
Rp1050
sg53
VFriendship or more - Don't Spend Another Day Alone!!! - m4w (New York)
p1051
sg55
g1034
sg160
VDon't Spend Another Day as a Single Woman! \u000aLet's see what we can do about that! \u000aI'm NOT looking for a one nighter or a fling, but rather a meaningful relationship. \u000aBased on Trust and Honesty. \u000aI would LOVE to be MARRIED by the Valentine's Day next [...]
p1052
sS'title_detail'
p1053
g0
(g1
g2
(dp1054
g33
Vhttps://newyork.craigslist.org/search/stp?format=rss
p1055
sg17
g69
sg36
Nsg37
g1051
stp1056
Rp1057
sg166
V2017-03-28T22:43:19-04:00
p1058
stp1059
Rp1060
ag0
(g1
g2
(dp1061
S'dc_source'
p1062
Vhttp://newyork.craigslist.org/mnh/stp/6060702055.html
p1063
sS'summary_detail'
p1064
g0
(g1
g2
(dp1065
g33
Vhttps://newyork.craigslist.org/search/stp?format=rss
p1066
sg17
g63
sg36
Nsg37
VDon't Spend Another Day as a Single Woman! \u000aLet's see what we can do about that! \u000aI'm NOT looking for a one nighter or a fling, but rather a meaningful relationship. \u000aBased on Trust and Honesty. \u000aI would LOVE to be MARRIED by the Valentine's Day next [...]
p1067
stp1068
Rp1069
sg82
g83
((I2017
I3
I29
I2
I43
I12
I2
I88
I0
tp1070
(dp1071
tp1072
Rp1073
sg12
(lp1074
g0
(g1
g2
(dp1075
g15
Vhttp://newyork.craigslist.org/mnh/stp/6060702055.html
p1076
sg17
g18
sg19
g20
stp1077
Rp1078
asg80
V2017-03-28T22:43:12-04:00
p1079
sg24
g1076
sS'rights_detail'
p1080
g0
(g1
g2
(dp1081
g33
Vhttps://newyork.craigslist.org/search/stp?format=rss
p1082
sg17
g35
sg36
Nsg37
Vcopyright 2017 craiglist
p1083
stp1084
Rp1085
sg149
Vhttp://newyork.craigslist.org/mnh/stp/6060702055.html
p1086
sS'dc_type'
p1087
Vtext
p1088
sg36
Ven-us
p1089
sg154
g83
((I2017
I3
I29
I2
I43
I12
I2
I88
I0
tp1090
(dp1091
tp1092
Rp1093
sg53
VFriendship or more - Looking for Commitment - Let's Get Married!!! - m4w (Downtown)
p1094
sg55
g1083
sg160
VDon't Spend Another Day as a Single Woman! \u000aLet's see what we can do about that! \u000aI'm NOT looking for a one nighter or a fling, but rather a meaningful relationship. \u000aBased on Trust and Honesty. \u000aI would LOVE to be MARRIED by the Valentine's Day next [...]
p1095
sS'title_detail'
p1096
g0
(g1
g2
(dp1097
g33
Vhttps://newyork.craigslist.org/search/stp?format=rss
p1098
sg17
g69
sg36
Nsg37
g1094
stp1099
Rp1100
sg166
V2017-03-28T22:43:12-04:00
p1101
stp1102
Rp1103
ag0
(g1
g2
(dp1104
S'dc_source'
p1105
Vhttp://newyork.craigslist.org/mnh/stp/6054781503.html
p1106
sS'summary_detail'
p1107
g0
(g1
g2
(dp1108
g33
Vhttps://newyork.craigslist.org/search/stp?format=rss
p1109
sg17
g63
sg36
Nsg37
VDon't Spend Another Day as a Single Woman! \u000aLet's see what we can do about that! \u000aI'm NOT looking for a one nighter or a fling, but rather a meaningful relationship. \u000aBased on Trust and Honesty. \u000aI would LOVE to be MARRIED by the Valentine's Day next [...]
p1110
stp1111
Rp1112
sg82
g83
((I2017
I3
I29
I2
I42
I55
I2
I88
I0
tp1113
(dp1114
tp1115
Rp1116
sg12
(lp1117
g0
(g1
g2
(dp1118
g15
Vhttp://newyork.craigslist.org/mnh/stp/6054781503.html
p1119
sg17
g18
sg19
g20
stp1120
Rp1121
asg80
V2017-03-28T22:42:55-04:00
p1122
sg24
g1119
sS'rights_detail'
p1123
g0
(g1
g2
(dp1124
g33
Vhttps://newyork.craigslist.org/search/stp?format=rss
p1125
sg17
g35
sg36
Nsg37
Vcopyright 2017 craiglist
p1126
stp1127
Rp1128
sS'enc_enclosure'
p1129
(dp1130
S'type'
p1131
Vimage/jpeg
p1132
sS'resource'
p1133
Vhttps://images.craigslist.org/00w0w_d8rmCacm7kE_300x300.jpg
p1134
ssg149
Vhttp://newyork.craigslist.org/mnh/stp/6054781503.html
p1135
sS'dc_type'
p1136
Vtext
p1137
sg36
Ven-us
p1138
sg154
g83
((I2017
I3
I29
I2
I42
I55
I2
I88
I0
tp1139
(dp1140
tp1141
Rp1142
sg53
VLooking for Commitment - Let's Get Married!!! - m4w (New York)
p1143
sg55
g1126
sg160
VDon't Spend Another Day as a Single Woman! \u000aLet's see what we can do about that! \u000aI'm NOT looking for a one nighter or a fling, but rather a meaningful relationship. \u000aBased on Trust and Honesty. \u000aI would LOVE to be MARRIED by the Valentine's Day next [...]
p1144
sS'title_detail'
p1145
g0
(g1
g2
(dp1146
g33
Vhttps://newyork.craigslist.org/search/stp?format=rss
p1147
sg17
g69
sg36
Nsg37
g1143
stp1148
Rp1149
sg166
V2017-03-28T22:42:55-04:00
p1150
stp1151
Rp1152
ag0
(g1
g2
(dp1153
S'dc_source'
p1154
Vhttp://newyork.craigslist.org/mnh/stp/6051587257.html
p1155
sS'summary_detail'
p1156
g0
(g1
g2
(dp1157
g33
Vhttps://newyork.craigslist.org/search/stp?format=rss
p1158
sg17
g63
sg36
Nsg37
VDon't Spend Another Day as a Single Woman! \u000aLet's see what we can do about that! \u000aI'm NOT looking for a one nighter or a fling, but rather a meaningful relationship. \u000aBased on Trust and Honesty. \u000aI would LOVE to be MARRIED by the Valentine's Day next [...]
p1159
stp1160
Rp1161
sg82
g83
((I2017
I3
I29
I2
I42
I45
I2
I88
I0
tp1162
(dp1163
tp1164
Rp1165
sg12
(lp1166
g0
(g1
g2
(dp1167
g15
Vhttp://newyork.craigslist.org/mnh/stp/6051587257.html
p1168
sg17
g18
sg19
g20
stp1169
Rp1170
asg80
V2017-03-28T22:42:45-04:00
p1171
sg24
g1168
sS'rights_detail'
p1172
g0
(g1
g2
(dp1173
g33
Vhttps://newyork.craigslist.org/search/stp?format=rss
p1174
sg17
g35
sg36
Nsg37
Vcopyright 2017 craiglist
p1175
stp1176
Rp1177
sS'enc_enclosure'
p1178
(dp1179
S'type'
p1180
Vimage/jpeg
p1181
sS'resource'
p1182
Vhttps://images.craigslist.org/00w0w_d8rmCacm7kE_300x300.jpg
p1183
ssg149
Vhttp://newyork.craigslist.org/mnh/stp/6051587257.html
p1184
sS'dc_type'
p1185
Vtext
p1186
sg36
Ven-us
p1187
sg154
g83
((I2017
I3
I29
I2
I42
I45
I2
I88
I0
tp1188
(dp1189
tp1190
Rp1191
sg53
VMarriage - LTR- Green Card - Stay in the USA - m4w (New York)
p1192
sg55
g1175
sg160
VDon't Spend Another Day as a Single Woman! \u000aLet's see what we can do about that! \u000aI'm NOT looking for a one nighter or a fling, but rather a meaningful relationship. \u000aBased on Trust and Honesty. \u000aI would LOVE to be MARRIED by the Valentine's Day next [...]
p1193
sS'title_detail'
p1194
g0
(g1
g2
(dp1195
g33
Vhttps://newyork.craigslist.org/search/stp?format=rss
p1196
sg17
g69
sg36
Nsg37
g1192
stp1197
Rp1198
sg166
V2017-03-28T22:42:45-04:00
p1199
stp1200
Rp1201
ag0
(g1
g2
(dp1202
S'dc_source'
p1203
Vhttp://newyork.craigslist.org/mnh/stp/6060729434.html
p1204
sS'summary_detail'
p1205
g0
(g1
g2
(dp1206
g33
Vhttps://newyork.craigslist.org/search/stp?format=rss
p1207
sg17
g63
sg36
Nsg37
VDon't Spend Another Day as a Single Woman! \u000aLet's see what we can do about that! \u000aI'm NOT looking for a one nighter or a fling, but rather a meaningful relationship. \u000aBased on Trust and Honesty. \u000aI would LOVE to be MARRIED by the Valentine's Day next [...]
p1208
stp1209
Rp1210
sg82
g83
((I2017
I3
I29
I2
I42
I29
I2
I88
I0
tp1211
(dp1212
tp1213
Rp1214
sg12
(lp1215
g0
(g1
g2
(dp1216
g15
Vhttp://newyork.craigslist.org/mnh/stp/6060729434.html
p1217
sg17
g18
sg19
g20
stp1218
Rp1219
asg80
V2017-03-28T22:42:29-04:00
p1220
sg24
g1217
sS'rights_detail'
p1221
g0
(g1
g2
(dp1222
g33
Vhttps://newyork.craigslist.org/search/stp?format=rss
p1223
sg17
g35
sg36
Nsg37
Vcopyright 2017 craiglist
p1224
stp1225
Rp1226
sS'enc_enclosure'
p1227
(dp1228
S'type'
p1229
Vimage/jpeg
p1230
sS'resource'
p1231
Vhttps://images.craigslist.org/00w0w_d8rmCacm7kE_300x300.jpg
p1232
ssg149
Vhttp://newyork.craigslist.org/mnh/stp/6060729434.html
p1233
sS'dc_type'
p1234
Vtext
p1235
sg36
Ven-us
p1236
sg154
g83
((I2017
I3
I29
I2
I42
I29
I2
I88
I0
tp1237
(dp1238
tp1239
Rp1240
sg53
VFriendship or more - Looking for Commitment - Let's Get Married!!! - m4w (Downtown)
p1241
sg55
g1224
sg160
VDon't Spend Another Day as a Single Woman! \u000aLet's see what we can do about that! \u000aI'm NOT looking for a one nighter or a fling, but rather a meaningful relationship. \u000aBased on Trust and Honesty. \u000aI would LOVE to be MARRIED by the Valentine's Day next [...]
p1242
sS'title_detail'
p1243
g0
(g1
g2
(dp1244
g33
Vhttps://newyork.craigslist.org/search/stp?format=rss
p1245
sg17
g69
sg36
Nsg37
g1241
stp1246
Rp1247
sg166
V2017-03-28T22:42:29-04:00
p1248
stp1249
Rp1250
asS'namespaces'
p1251
(dp1252
S''
p1253
Vhttp://purl.org/rss/1.0/
p1254
sS'sy'
p1255
Vhttp://purl.org/rss/1.0/modules/syndication/
p1256
sVenc
p1257
Vhttp://purl.oclc.org/net/rss_2.0/enc#
p1258
sS'taxo'
p1259
Vhttp://purl.org/rss/1.0/modules/taxonomy/
p1260
sS'admin'
p1261
Vhttp://webns.net/mvcb/
p1262
sS'dc'
p1263
Vhttp://purl.org/dc/elements/1.1/
p1264
sS'content'
p1265
Vhttp://purl.org/rss/1.0/modules/content/
p1266
sS'rdf'
p1267
Vhttp://www.w3.org/1999/02/22-rdf-syntax-ns#
p1268
sS'ev'
p1269
Vhttp://purl.org/rss/1.0/modules/event/
p1270
sS'dcterms'
p1271
Vhttp://purl.org/dc/terms/
p1272
sstp1273
Rp1274
g0
(g1
g2
(dp1275
g4
g0
(g1
g2
(dp1276
S'dc_source'
p1277
Vhttps://sfbay.craigslist.org/search/stp?format=rss
p1278
sg8
g9
sg10
Vrobot@craigslist.org
p1279
sg12
(lp1280
g0
(g1
g2
(dp1281
g15
Vhttps://sfbay.craigslist.org/search/stp
p1282
sg17
g18
sg19
g20
stp1283
Rp1284
asS'rdf_seq'
p1285
g9
sg24
g1282
sg25
(lp1286
g0
(g1
g2
(dp1287
g28
g1279
stp1288
Rp1289
asS'rights_detail'
p1290
g0
(g1
g2
(dp1291
g33
Vhttps://sfbay.craigslist.org/search/stp?format=rss
p1292
sg17
g35
sg36
Nsg37
Vcopyright 2017 craiglist
p1293
stp1294
Rp1295
sS'publisher_detail'
p1296
g0
(g1
g2
(dp1297
g28
Vrobot@craigslist.org
p1298
stp1299
Rp1300
sS'author_detail'
p1301
g1289
sS'sy_updatebase'
p1302
V2017-03-28T21:43:17-07:00
p1303
sg49
g1298
sS'dc_type'
p1304
VCollection
p1305
sg36
Ven-us
p1306
sg53
Vcraigslist SF bay area | strictly platonic search
p1307
sg55
g1293
sS'rdf_li'
p1308
(dp1309
S'rdf:resource'
p1310
Vhttp://sfbay.craigslist.org/sby/stp/6052636543.html
p1311
ssS'subtitle_detail'
p1312
g0
(g1
g2
(dp1313
g33
Vhttps://sfbay.craigslist.org/search/stp?format=rss
p1314
sg17
g63
sg36
Nsg37
g9
stp1315
Rp1316
sS'title_detail'
p1317
g0
(g1
g2
(dp1318
g33
Vhttps://sfbay.craigslist.org/search/stp?format=rss
p1319
sg17
g69
sg36
Nsg37
g1307
stp1320
Rp1321
sS'sy_updateperiod'
p1322
Vhourly
p1323
sg74
g9
sS'sy_updatefrequency'
p1324
V6
p1325
stp1326
Rp1327
sg79
I301
sg80
S'Wed, 29 Mar 2017 04:43:17 GMT'
p1328
sg82
g83
((I2017
I3
I29
I4
I43
I17
I2
I88
I0
tp1329
(dp1330
tp1331
Rp1332
sg88
Vutf-8
p1333
sg90
I0
sg91
(dp1334
S'content-length'
p1335
S'5379'
p1336
sS'expires'
p1337
S'Wed, 29 Mar 2017 04:58:17 GMT'
p1338
sS'content-encoding'
p1339
S'gzip'
p1340
sS'strict-transport-security'
p1341
S'max-age=86400'
p1342
sS'vary'
p1343
S'Accept-Encoding'
p1344
sS'server'
p1345
S'Apache'
p1346
sS'last-modified'
p1347
g1328
sS'cache-control'
p1348
S'max-age=900, public'
p1349
sS'date'
p1350
S'Wed, 29 Mar 2017 04:43:17 GMT'
p1351
sS'x-frame-options'
p1352
S'SAMEORIGIN'
p1353
sS'content-type'
p1354
S'application/rss+xml; charset=utf-8'
p1355
ssg15
Vhttps://sfbay.craigslist.org/search/stp?format=rss
p1356
sg115
g116
sg74
(lp1357
g0
(g1
g2
(dp1358
S'dc_source'
p1359
Vhttp://sfbay.craigslist.org/sby/stp/6064621857.html
p1360
sS'summary_detail'
p1361
g0
(g1
g2
(dp1362
g33
Vhttps://sfbay.craigslist.org/search/stp?format=rss
p1363
sg17
g63
sg36
Nsg37
VI'm a highly educated and successfull professional. Yet, I suffer from chronic depression , which is mostly due to my abusive parents, discementions I have faced and harsh living environment. \u000aAlthough I'm professionally successful, depression highly [...]
p1364
stp1365
Rp1366
sg82
g83
((I2017
I3
I29
I3
I40
I24
I2
I88
I0
tp1367
(dp1368
tp1369
Rp1370
sg12
(lp1371
g0
(g1
g2
(dp1372
g15
Vhttp://sfbay.craigslist.org/sby/stp/6064621857.html
p1373
sg17
g18
sg19
g20
stp1374
Rp1375
asg80
V2017-03-28T20:40:24-07:00
p1376
sg24
g1373
sS'rights_detail'
p1377
g0
(g1
g2
(dp1378
g33
Vhttps://sfbay.craigslist.org/search/stp?format=rss
p1379
sg17
g35
sg36
Nsg37
Vcopyright 2017 craiglist
p1380
stp1381
Rp1382
sg149
Vhttp://sfbay.craigslist.org/sby/stp/6064621857.html
p1383
sS'dc_type'
p1384
Vtext
p1385
sg36
Ven-us
p1386
sg154
g83
((I2017
I3
I29
I3
I40
I24
I2
I88
I0
tp1387
(dp1388
tp1389
Rp1390
sg53
VDepression hurts, Cymbalta doesn't help - m4w (sunnyvale)
p1391
sg55
g1380
sg160
VI'm a highly educated and successfull professional. Yet, I suffer from chronic depression , which is mostly due to my abusive parents, discementions I have faced and harsh living environment. \u000aAlthough I'm professionally successful, depression highly [...]
p1392
sS'title_detail'
p1393
g0
(g1
g2
(dp1394
g33
Vhttps://sfbay.craigslist.org/search/stp?format=rss
p1395
sg17
g69
sg36
Nsg37
g1391
stp1396
Rp1397
sg166
V2017-03-28T20:40:24-07:00
p1398
stp1399
Rp1400
ag0
(g1
g2
(dp1401
S'dc_source'
p1402
Vhttp://sfbay.craigslist.org/pen/stp/6034564515.html
p1403
sS'summary_detail'
p1404
g0
(g1
g2
(dp1405
g33
Vhttps://sfbay.craigslist.org/search/stp?format=rss
p1406
sg17
g63
sg36
Nsg37
V....for long or short term exchanges, sometime around midnight, on a frequent or semi-frequent basis, for entertainment purposes only. \u000aFurther details available upon inquiry. \u000aThanks for reading in the dark.
p1407
stp1408
Rp1409
sg82
g83
((I2017
I3
I29
I3
I19
I23
I2
I88
I0
tp1410
(dp1411
tp1412
Rp1413
sg12
(lp1414
g0
(g1
g2
(dp1415
g15
Vhttp://sfbay.craigslist.org/pen/stp/6034564515.html
p1416
sg17
g18
sg19
g20
stp1417
Rp1418
asg80
V2017-03-28T20:19:23-07:00
p1419
sg24
g1416
sS'rights_detail'
p1420
g0
(g1
g2
(dp1421
g33
Vhttps://sfbay.craigslist.org/search/stp?format=rss
p1422
sg17
g35
sg36
Nsg37
Vcopyright 2017 craiglist
p1423
stp1424
Rp1425
sg149
Vhttp://sfbay.craigslist.org/pen/stp/6034564515.html
p1426
sS'dc_type'
p1427
Vtext
p1428
sg36
Ven-us
p1429
sg154
g83
((I2017
I3
I29
I3
I19
I23
I2
I88
I0
tp1430
(dp1431
tp1432
Rp1433
sg53
VSeeking a smart insomniac or nerdy night owl... - m4w
p1434
sg55
g1423
sg160
V....for long or short term exchanges, sometime around midnight, on a frequent or semi-frequent basis, for entertainment purposes only. \u000aFurther details available upon inquiry. \u000aThanks for reading in the dark.
p1435
sS'title_detail'
p1436
g0
(g1
g2
(dp1437
g33
Vhttps://sfbay.craigslist.org/search/stp?format=rss
p1438
sg17
g69
sg36
Nsg37
g1434
stp1439
Rp1440
sg166
V2017-03-28T20:19:23-07:00
p1441
stp1442
Rp1443
ag0
(g1
g2
(dp1444
S'dc_source'
p1445
Vhttp://sfbay.craigslist.org/eby/stp/6039998518.html
p1446
sS'summary_detail'
p1447
g0
(g1
g2
(dp1448
g33
Vhttps://sfbay.craigslist.org/search/stp?format=rss
p1449
sg17
g63
sg36
Nsg37
VI am looking for some new friends. I'm looking for someone who likes to go shopping also looking for a swim partner at the gym.
p1450
stp1451
Rp1452
sg82
g83
((I2017
I3
I29
I3
I11
I19
I2
I88
I0
tp1453
(dp1454
tp1455
Rp1456
sg12
(lp1457
g0
(g1
g2
(dp1458
g15
Vhttp://sfbay.craigslist.org/eby/stp/6039998518.html
p1459
sg17
g18
sg19
g20
stp1460
Rp1461
asg80
V2017-03-28T20:11:19-07:00
p1462
sg24
g1459
sS'rights_detail'
p1463
g0
(g1
g2
(dp1464
g33
Vhttps://sfbay.craigslist.org/search/stp?format=rss
p1465
sg17
g35
sg36
Nsg37
Vcopyright 2017 craiglist
p1466
stp1467
Rp1468
sg149
Vhttp://sfbay.craigslist.org/eby/stp/6039998518.html
p1469
sS'dc_type'
p1470
Vtext
p1471
sg36
Ven-us
p1472
sg154
g83
((I2017
I3
I29
I3
I11
I19
I2
I88
I0
tp1473
(dp1474
tp1475
Rp1476
sg53
Vfemale friends - w4w (concord / pleasant hill / martinez)
p1477
sg55
g1466
sg160
g1450
sS'title_detail'
p1478
g0
(g1
g2
(dp1479
g33
Vhttps://sfbay.craigslist.org/search/stp?format=rss
p1480
sg17
g69
sg36
Nsg37
g1477
stp1481
Rp1482
sg166
V2017-03-28T20:11:19-07:00
p1483
stp1484
Rp1485
ag0
(g1
g2
(dp1486
S'dc_source'
p1487
Vhttp://sfbay.craigslist.org/eby/stp/6064548513.html
p1488
sS'summary_detail'
p1489
g0
(g1
g2
(dp1490
g33
Vhttps://sfbay.craigslist.org/search/stp?format=rss
p1491
sg17
g63
sg36
Nsg37
VHello \u000ahow are you doing tonight? \u000aI was kind of bored seating home and wondering if any girl out there wants to have a good conversation or more \u000athank you
p1492
stp1493
Rp1494
sg82
g83
((I2017
I3
I29
I3
I8
I37
I2
I88
I0
tp1495
(dp1496
tp1497
Rp1498
sg12
(lp1499
g0
(g1
g2
(dp1500
g15
Vhttp://sfbay.craigslist.org/eby/stp/6064548513.html
p1501
sg17
g18
sg19
g20
stp1502
Rp1503
asg80
V2017-03-28T20:08:37-07:00
p1504
sg24
g1501
sS'rights_detail'
p1505
g0
(g1
g2
(dp1506
g33
Vhttps://sfbay.craigslist.org/search/stp?format=rss
p1507
sg17
g35
sg36
Nsg37
Vcopyright 2017 craiglist
p1508
stp1509
Rp1510
sg149
Vhttp://sfbay.craigslist.org/eby/stp/6064548513.html
p1511
sS'dc_type'
p1512
Vtext
p1513
sg36
Ven-us
p1514
sg154
g83
((I2017
I3
I29
I3
I8
I37
I2
I88
I0
tp1515
(dp1516
tp1517
Rp1518
sg53
VText or friends - m4w (dublin / pleasanton / livermore)
p1519
sg55
g1508
sg160
VHello \u000ahow are you doing tonight? \u000aI was kind of bored seating home and wondering if any girl out there wants to have a good conversation or more \u000athank you
p1520
sS'title_detail'
p1521
g0
(g1
g2
(dp1522
g33
Vhttps://sfbay.craigslist.org/search/stp?format=rss
p1523
sg17
g69
sg36
Nsg37
g1519
stp1524
Rp1525
sg166
V2017-03-28T20:08:37-07:00
p1526
stp1527
Rp1528
ag0
(g1
g2
(dp1529
S'dc_source'
p1530
Vhttp://sfbay.craigslist.org/sby/stp/6064596963.html
p1531
sS'summary_detail'
p1532
g0
(g1
g2
(dp1533
g33
Vhttps://sfbay.craigslist.org/search/stp?format=rss
p1534
sg17
g63
sg36
Nsg37
VHey just got out of a ten year relationship with someone I thought was the one. I have been very depressed these last couple of days because I didn't just lose the love of my life but also most of my friends. Most of my friends I met through her and  [...]
p1535
stp1536
Rp1537
sg82
g83
((I2017
I3
I29
I3
I8
I6
I2
I88
I0
tp1538
(dp1539
tp1540
Rp1541
sg12
(lp1542
g0
(g1
g2
(dp1543
g15
Vhttp://sfbay.craigslist.org/sby/stp/6064596963.html
p1544
sg17
g18
sg19
g20
stp1545
Rp1546
asg80
V2017-03-28T20:08:06-07:00
p1547
sg24
g1544
sS'rights_detail'
p1548
g0
(g1
g2
(dp1549
g33
Vhttps://sfbay.craigslist.org/search/stp?format=rss
p1550
sg17
g35
sg36
Nsg37
Vcopyright 2017 craiglist
p1551
stp1552
Rp1553
sS'enc_enclosure'
p1554
(dp1555
S'type'
p1556
Vimage/jpeg
p1557
sS'resource'
p1558
Vhttps://images.craigslist.org/00i0i_eum1SKJMIYX_300x300.jpg
p1559
ssg149
Vhttp://sfbay.craigslist.org/sby/stp/6064596963.html
p1560
sS'dc_type'
p1561
Vtext
p1562
sg36
Ven-us
p1563
sg154
g83
((I2017
I3
I29
I3
I8
I6
I2
I88
I0
tp1564
(dp1565
tp1566
Rp1567
sg53
VJust got dumped and looking for a new friend to cheer me up - m4w (san jose south)
p1568
sg55
g1551
sg160
g1535
sS'title_detail'
p1569
g0
(g1
g2
(dp1570
g33
Vhttps://sfbay.craigslist.org/search/stp?format=rss
p1571
sg17
g69
sg36
Nsg37
g1568
stp1572
Rp1573
sg166
V2017-03-28T20:08:06-07:00
p1574
stp1575
Rp1576
ag0
(g1
g2
(dp1577
S'dc_source'
p1578
Vhttp://sfbay.craigslist.org/sby/stp/6049696719.html
p1579
sS'summary_detail'
p1580
g0
(g1
g2
(dp1581
g33
Vhttps://sfbay.craigslist.org/search/stp?format=rss
p1582
sg17
g63
sg36
Nsg37
VDon't you deserve a nice foot massage ? of course you do :) \u000aOr perhaps you just want someone to give you company while he does your chores. Or maybe even someone to take picture of you, organize your things and provide poetic complements on demand : [...]
p1583
stp1584
Rp1585
sg82
g83
((I2017
I3
I29
I3
I1
I29
I2
I88
I0
tp1586
(dp1587
tp1588
Rp1589
sg12
(lp1590
g0
(g1
g2
(dp1591
g15
Vhttp://sfbay.craigslist.org/sby/stp/6049696719.html
p1592
sg17
g18
sg19
g20
stp1593
Rp1594
asg80
V2017-03-28T20:01:29-07:00
p1595
sg24
g1592
sS'rights_detail'
p1596
g0
(g1
g2
(dp1597
g33
Vhttps://sfbay.craigslist.org/search/stp?format=rss
p1598
sg17
g35
sg36
Nsg37
Vcopyright 2017 craiglist
p1599
stp1600
Rp1601
sS'enc_enclosure'
p1602
(dp1603
S'type'
p1604
Vimage/jpeg
p1605
sS'resource'
p1606
Vhttps://images.craigslist.org/00b0b_kiHV71MKRqp_300x300.jpg
p1607
ssg149
Vhttp://sfbay.craigslist.org/sby/stp/6049696719.html
p1608
sS'dc_type'
p1609
Vtext
p1610
sg36
Ven-us
p1611
sg154
g83
((I2017
I3
I29
I3
I1
I29
I2
I88
I0
tp1612
(dp1613
tp1614
Rp1615
sg53
VPlatonic foot massage by cute , obedient manservant - m4w (mountain view)
p1616
sg55
g1599
sg160
VDon't you deserve a nice foot massage ? of course you do :) \u000aOr perhaps you just want someone to give you company while he does your chores. Or maybe even someone to take picture of you, organize your things and provide poetic complements on demand : [...]
p1617
sS'title_detail'
p1618
g0
(g1
g2
(dp1619
g33
Vhttps://sfbay.craigslist.org/search/stp?format=rss
p1620
sg17
g69
sg36
Nsg37
g1616
stp1621
Rp1622
sg166
V2017-03-28T20:01:29-07:00
p1623
stp1624
Rp1625
ag0
(g1
g2
(dp1626
S'dc_source'
p1627
Vhttp://sfbay.craigslist.org/pen/stp/6064590685.html
p1628
sS'summary_detail'
p1629
g0
(g1
g2
(dp1630
g33
Vhttps://sfbay.craigslist.org/search/stp?format=rss
p1631
sg17
g63
sg36
Nsg37
VWould you like to chat superficially or even converse in a more in depth way about the vicissitudes of life or a recent fun trip? \u000aFeeling isolated even though you are a kind and well-adjusted human being? \u000aLet's talk, no risk,no commitment,no invest [...]
p1632
stp1633
Rp1634
sg82
g83
((I2017
I3
I29
I3
I0
I24
I2
I88
I0
tp1635
(dp1636
tp1637
Rp1638
sg12
(lp1639
g0
(g1
g2
(dp1640
g15
Vhttp://sfbay.craigslist.org/pen/stp/6064590685.html
p1641
sg17
g18
sg19
g20
stp1642
Rp1643
asg80
V2017-03-28T20:00:24-07:00
p1644
sg24
g1641
sS'rights_detail'
p1645
g0
(g1
g2
(dp1646
g33
Vhttps://sfbay.craigslist.org/search/stp?format=rss
p1647
sg17
g35
sg36
Nsg37
Vcopyright 2017 craiglist
p1648
stp1649
Rp1650
sS'enc_enclosure'
p1651
(dp1652
S'type'
p1653
Vimage/jpeg
p1654
sS'resource'
p1655
Vhttps://images.craigslist.org/00W0W_cSO0jQXqfnR_300x300.jpg
p1656
ssg149
Vhttp://sfbay.craigslist.org/pen/stp/6064590685.html
p1657
sS'dc_type'
p1658
Vtext
p1659
sg36
Ven-us
p1660
sg154
g83
((I2017
I3
I29
I3
I0
I24
I2
I88
I0
tp1661
(dp1662
tp1663
Rp1664
sg53
VWant to just talk ? - w4m (Menlo Park)
p1665
sg55
g1648
sg160
VWould you like to chat superficially or even converse in a more in depth way about the vicissitudes of life or a recent fun trip? \u000aFeeling isolated even though you are a kind and well-adjusted human being? \u000aLet's talk, no risk,no commitment,no invest [...]
p1666
sS'title_detail'
p1667
g0
(g1
g2
(dp1668
g33
Vhttps://sfbay.craigslist.org/search/stp?format=rss
p1669
sg17
g69
sg36
Nsg37
g1665
stp1670
Rp1671
sg166
V2017-03-28T20:00:24-07:00
p1672
stp1673
Rp1674
ag0
(g1
g2
(dp1675
S'dc_source'
p1676
Vhttp://sfbay.craigslist.org/scz/stp/6025866281.html
p1677
sS'summary_detail'
p1678
g0
(g1
g2
(dp1679
g33
Vhttps://sfbay.craigslist.org/search/stp?format=rss
p1680
sg17
g63
sg36
Nsg37
VLooking for someone that wants to meet for happy hour and possibly a movie or something later. Just a friendly hang out. No pressure or expectation for anything else.
p1681
stp1682
Rp1683
sg82
g83
((I2017
I3
I29
I2
I56
I4
I2
I88
I0
tp1684
(dp1685
tp1686
Rp1687
sg12
(lp1688
g0
(g1
g2
(dp1689
g15
Vhttp://sfbay.craigslist.org/scz/stp/6025866281.html
p1690
sg17
g18
sg19
g20
stp1691
Rp1692
asg80
V2017-03-28T19:56:04-07:00
p1693
sg24
g1690
sS'rights_detail'
p1694
g0
(g1
g2
(dp1695
g33
Vhttps://sfbay.craigslist.org/search/stp?format=rss
p1696
sg17
g35
sg36
Nsg37
Vcopyright 2017 craiglist
p1697
stp1698
Rp1699
sg149
Vhttp://sfbay.craigslist.org/scz/stp/6025866281.html
p1700
sS'dc_type'
p1701
Vtext
p1702
sg36
Ven-us
p1703
sg154
g83
((I2017
I3
I29
I2
I56
I4
I2
I88
I0
tp1704
(dp1705
tp1706
Rp1707
sg53
VDrink Today? - m4w (santa cruz)
p1708
sg55
g1697
sg160
g1681
sS'title_detail'
p1709
g0
(g1
g2
(dp1710
g33
Vhttps://sfbay.craigslist.org/search/stp?format=rss
p1711
sg17
g69
sg36
Nsg37
g1708
stp1712
Rp1713
sg166
V2017-03-28T19:56:04-07:00
p1714
stp1715
Rp1716
ag0
(g1
g2
(dp1717
S'dc_source'
p1718
Vhttp://sfbay.craigslist.org/scz/stp/6028523465.html
p1719
sS'summary_detail'
p1720
g0
(g1
g2
(dp1721
g33
Vhttps://sfbay.craigslist.org/search/stp?format=rss
p1722
sg17
g63
sg36
Nsg37
VLooking for someone like myself in a relationship and bored. Like to go to the movies, walks on west cliff, coffee, lunch, open to whatever else. Looking for mainly new friends and activity partners. That's why this is in the platonic section. Not lo [...]
p1723
stp1724
Rp1725
sg82
g83
((I2017
I3
I29
I2
I55
I58
I2
I88
I0
tp1726
(dp1727
tp1728
Rp1729
sg12
(lp1730
g0
(g1
g2
(dp1731
g15
Vhttp://sfbay.craigslist.org/scz/stp/6028523465.html
p1732
sg17
g18
sg19
g20
stp1733
Rp1734
asg80
V2017-03-28T19:55:58-07:00
p1735
sg24
g1732
sS'rights_detail'
p1736
g0
(g1
g2
(dp1737
g33
Vhttps://sfbay.craigslist.org/search/stp?format=rss
p1738
sg17
g35
sg36
Nsg37
Vcopyright 2017 craiglist
p1739
stp1740
Rp1741
sg149
Vhttp://sfbay.craigslist.org/scz/stp/6028523465.html
p1742
sS'dc_type'
p1743
Vtext
p1744
sg36
Ven-us
p1745
sg154
g83
((I2017
I3
I29
I2
I55
I58
I2
I88
I0
tp1746
(dp1747
tp1748
Rp1749
sg53
VBored in your current relationship? Me too. - m4w (santa cruz)
p1750
sg55
g1739
sg160
g1723
sS'title_detail'
p1751
g0
(g1
g2
(dp1752
g33
Vhttps://sfbay.craigslist.org/search/stp?format=rss
p1753
sg17
g69
sg36
Nsg37
g1750
stp1754
Rp1755
sg166
V2017-03-28T19:55:58-07:00
p1756
stp1757
Rp1758
ag0
(g1
g2
(dp1759
S'dc_source'
p1760
Vhttp://sfbay.craigslist.org/scz/stp/6025866416.html
p1761
sS'summary_detail'
p1762
g0
(g1
g2
(dp1763
g33
Vhttps://sfbay.craigslist.org/search/stp?format=rss
p1764
sg17
g63
sg36
Nsg37
VLooking for someone that wants to meet for happy hour and possibly a movie or something later. Just a friendly hang out. No pressure or expectation for anything else.
p1765
stp1766
Rp1767
sg82
g83
((I2017
I3
I29
I2
I55
I43
I2
I88
I0
tp1768
(dp1769
tp1770
Rp1771
sg12
(lp1772
g0
(g1
g2
(dp1773
g15
Vhttp://sfbay.craigslist.org/scz/stp/6025866416.html
p1774
sg17
g18
sg19
g20
stp1775
Rp1776
asg80
V2017-03-28T19:55:43-07:00
p1777
sg24
g1774
sS'rights_detail'
p1778
g0
(g1
g2
(dp1779
g33
Vhttps://sfbay.craigslist.org/search/stp?format=rss
p1780
sg17
g35
sg36
Nsg37
Vcopyright 2017 craiglist
p1781
stp1782
Rp1783
sg149
Vhttp://sfbay.craigslist.org/scz/stp/6025866416.html
p1784
sS'dc_type'
p1785
Vtext
p1786
sg36
Ven-us
p1787
sg154
g83
((I2017
I3
I29
I2
I55
I43
I2
I88
I0
tp1788
(dp1789
tp1790
Rp1791
sg53
VDrink Today? - m4w (santa cruz)
p1792
sg55
g1781
sg160
g1765
sS'title_detail'
p1793
g0
(g1
g2
(dp1794
g33
Vhttps://sfbay.craigslist.org/search/stp?format=rss
p1795
sg17
g69
sg36
Nsg37
g1792
stp1796
Rp1797
sg166
V2017-03-28T19:55:43-07:00
p1798
stp1799
Rp1800
ag0
(g1
g2
(dp1801
S'dc_source'
p1802
Vhttp://sfbay.craigslist.org/scz/stp/6049930132.html
p1803
sS'summary_detail'
p1804
g0
(g1
g2
(dp1805
g33
Vhttps://sfbay.craigslist.org/search/stp?format=rss
p1806
sg17
g63
sg36
Nsg37
VLooking for someone to grab a few drinks and maybe go to a movie with this weekend. 35-45. This is just strictly platonic. Would be nice to find someone that's fun to be around and that likes to laugh. Maybe an ongoing thing.
p1807
stp1808
Rp1809
sg82
g83
((I2017
I3
I29
I2
I55
I28
I2
I88
I0
tp1810
(dp1811
tp1812
Rp1813
sg12
(lp1814
g0
(g1
g2
(dp1815
g15
Vhttp://sfbay.craigslist.org/scz/stp/6049930132.html
p1816
sg17
g18
sg19
g20
stp1817
Rp1818
asg80
V2017-03-28T19:55:28-07:00
p1819
sg24
g1816
sS'rights_detail'
p1820
g0
(g1
g2
(dp1821
g33
Vhttps://sfbay.craigslist.org/search/stp?format=rss
p1822
sg17
g35
sg36
Nsg37
Vcopyright 2017 craiglist
p1823
stp1824
Rp1825
sg149
Vhttp://sfbay.craigslist.org/scz/stp/6049930132.html
p1826
sS'dc_type'
p1827
Vtext
p1828
sg36
Ven-us
p1829
sg154
g83
((I2017
I3
I29
I2
I55
I28
I2
I88
I0
tp1830
(dp1831
tp1832
Rp1833
sg53
VDrinks and a Movie - m4w (santa cruz)
p1834
sg55
g1823
sg160
g1807
sS'title_detail'
p1835
g0
(g1
g2
(dp1836
g33
Vhttps://sfbay.craigslist.org/search/stp?format=rss
p1837
sg17
g69
sg36
Nsg37
g1834
stp1838
Rp1839
sg166
V2017-03-28T19:55:28-07:00
p1840
stp1841
Rp1842
ag0
(g1
g2
(dp1843
S'dc_source'
p1844
Vhttp://sfbay.craigslist.org/sfc/stp/6064583223.html
p1845
sS'summary_detail'
p1846
g0
(g1
g2
(dp1847
g33
Vhttps://sfbay.craigslist.org/search/stp?format=rss
p1848
sg17
g63
sg36
Nsg37
VI am a white professional man, fit and good looking and not the least bit strange. But I just happen to be into nudism--whether nude beaches, or skinny dipping in the mountains or just enjoying a sunny day at Archimedes or Frogs. And I would love to  [...]
p1849
stp1850
Rp1851
sg82
g83
((I2017
I3
I29
I2
I51
I20
I2
I88
I0
tp1852
(dp1853
tp1854
Rp1855
sg12
(lp1856
g0
(g1
g2
(dp1857
g15
Vhttp://sfbay.craigslist.org/sfc/stp/6064583223.html
p1858
sg17
g18
sg19
g20
stp1859
Rp1860
asg80
V2017-03-28T19:51:20-07:00
p1861
sg24
g1858
sS'rights_detail'
p1862
g0
(g1
g2
(dp1863
g33
Vhttps://sfbay.craigslist.org/search/stp?format=rss
p1864
sg17
g35
sg36
Nsg37
Vcopyright 2017 craiglist
p1865
stp1866
Rp1867
sg149
Vhttp://sfbay.craigslist.org/sfc/stp/6064583223.html
p1868
sS'dc_type'
p1869
Vtext
p1870
sg36
Ven-us
p1871
sg154
g83
((I2017
I3
I29
I2
I51
I20
I2
I88
I0
tp1872
(dp1873
tp1874
Rp1875
sg53
VNudist man seeks nudist woman - m4w
p1876
sg55
g1865
sg160
g1849
sS'title_detail'
p1877
g0
(g1
g2
(dp1878
g33
Vhttps://sfbay.craigslist.org/search/stp?format=rss
p1879
sg17
g69
sg36
Nsg37
g1876
stp1880
Rp1881
sg166
V2017-03-28T19:51:20-07:00
p1882
stp1883
Rp1884
ag0
(g1
g2
(dp1885
S'dc_source'
p1886
Vhttp://sfbay.craigslist.org/nby/stp/6059684758.html
p1887
sS'summary_detail'
p1888
g0
(g1
g2
(dp1889
g33
Vhttps://sfbay.craigslist.org/search/stp?format=rss
p1890
sg17
g63
sg36
Nsg37
VSome people appear to be normal average people on the outside but when they are with a certain person or are behind closed doors they gravitate to being dominate or submissive in certain situations. What do you gravitate towards? Does your partner or [...]
p1891
stp1892
Rp1893
sg82
g83
((I2017
I3
I29
I2
I50
I31
I2
I88
I0
tp1894
(dp1895
tp1896
Rp1897
sg12
(lp1898
g0
(g1
g2
(dp1899
g15
Vhttp://sfbay.craigslist.org/nby/stp/6059684758.html
p1900
sg17
g18
sg19
g20
stp1901
Rp1902
asg80
V2017-03-28T19:50:31-07:00
p1903
sg24
g1900
sS'rights_detail'
p1904
g0
(g1
g2
(dp1905
g33
Vhttps://sfbay.craigslist.org/search/stp?format=rss
p1906
sg17
g35
sg36
Nsg37
Vcopyright 2017 craiglist
p1907
stp1908
Rp1909
sg149
Vhttp://sfbay.craigslist.org/nby/stp/6059684758.html
p1910
sS'dc_type'
p1911
Vtext
p1912
sg36
Ven-us
p1913
sg154
g83
((I2017
I3
I29
I2
I50
I31
I2
I88
I0
tp1914
(dp1915
tp1916
Rp1917
sg53
VDominate personality 4 submissive personality - m4w (santa rosa)
p1918
sg55
g1907
sg160
g1891
sS'title_detail'
p1919
g0
(g1
g2
(dp1920
g33
Vhttps://sfbay.craigslist.org/search/stp?format=rss
p1921
sg17
g69
sg36
Nsg37
g1918
stp1922
Rp1923
sg166
V2017-03-28T19:50:31-07:00
p1924
stp1925
Rp1926
ag0
(g1
g2
(dp1927
S'dc_source'
p1928
Vhttp://sfbay.craigslist.org/sfc/stp/6047229394.html
p1929
sS'summary_detail'
p1930
g0
(g1
g2
(dp1931
g33
Vhttps://sfbay.craigslist.org/search/stp?format=rss
p1932
sg17
g63
sg36
Nsg37
VI've recently discovered the personals section of Craigslist, and decided to check it out :) \u000aDo you enjoy cooking and eating healthy food? \u000aAre you single, fun, and easygoing? \u000aDo you live in SF? \u000aDo you like relaxing soft rock and indie music? \u000aAnd [...]
p1933
stp1934
Rp1935
sg82
g83
((I2017
I3
I29
I2
I49
I5
I2
I88
I0
tp1936
(dp1937
tp1938
Rp1939
sg12
(lp1940
g0
(g1
g2
(dp1941
g15
Vhttp://sfbay.craigslist.org/sfc/stp/6047229394.html
p1942
sg17
g18
sg19
g20
stp1943
Rp1944
asg80
V2017-03-28T19:49:05-07:00
p1945
sg24
g1942
sS'rights_detail'
p1946
g0
(g1
g2
(dp1947
g33
Vhttps://sfbay.craigslist.org/search/stp?format=rss
p1948
sg17
g35
sg36
Nsg37
Vcopyright 2017 craiglist
p1949
stp1950
Rp1951
sS'enc_enclosure'
p1952
(dp1953
S'type'
p1954
Vimage/jpeg
p1955
sS'resource'
p1956
Vhttps://images.craigslist.org/00Z0Z_9DIo66KwgIk_300x300.jpg
p1957
ssg149
Vhttp://sfbay.craigslist.org/sfc/stp/6047229394.html
p1958
sS'dc_type'
p1959
Vtext
p1960
sg36
Ven-us
p1961
sg154
g83
((I2017
I3
I29
I2
I49
I5
I2
I88
I0
tp1962
(dp1963
tp1964
Rp1965
sg53
VCooking, laughter, music, candles, and wine :) - m4w (bernal heights)
p1966
sg55
g1949
sg160
VI've recently discovered the personals section of Craigslist, and decided to check it out :) \u000aDo you enjoy cooking and eating healthy food? \u000aAre you single, fun, and easygoing? \u000aDo you live in SF? \u000aDo you like relaxing soft rock and indie music? \u000aAnd [...]
p1967
sS'title_detail'
p1968
g0
(g1
g2
(dp1969
g33
Vhttps://sfbay.craigslist.org/search/stp?format=rss
p1970
sg17
g69
sg36
Nsg37
g1966
stp1971
Rp1972
sg166
V2017-03-28T19:49:05-07:00
p1973
stp1974
Rp1975
ag0
(g1
g2
(dp1976
S'dc_source'
p1977
Vhttp://sfbay.craigslist.org/sby/stp/6064548015.html
p1978
sS'summary_detail'
p1979
g0
(g1
g2
(dp1980
g33
Vhttps://sfbay.craigslist.org/search/stp?format=rss
p1981
sg17
g63
sg36
Nsg37
VHello \u000ahow are you doing? up to text and see hows life going on your side? \u000alets talk \u000anice guy here :)
p1982
stp1983
Rp1984
sg82
g83
((I2017
I3
I29
I2
I46
I7
I2
I88
I0
tp1985
(dp1986
tp1987
Rp1988
sg12
(lp1989
g0
(g1
g2
(dp1990
g15
Vhttp://sfbay.craigslist.org/sby/stp/6064548015.html
p1991
sg17
g18
sg19
g20
stp1992
Rp1993
asg80
V2017-03-28T19:46:07-07:00
p1994
sg24
g1991
sS'rights_detail'
p1995
g0
(g1
g2
(dp1996
g33
Vhttps://sfbay.craigslist.org/search/stp?format=rss
p1997
sg17
g35
sg36
Nsg37
Vcopyright 2017 craiglist
p1998
stp1999
Rp2000
sg149
Vhttp://sfbay.craigslist.org/sby/stp/6064548015.html
p2001
sS'dc_type'
p2002
Vtext
p2003
sg36
Ven-us
p2004
sg154
g83
((I2017
I3
I29
I2
I46
I7
I2
I88
I0
tp2005
(dp2006
tp2007
Rp2008
sg53
Vtexting ? - m4w (san jose south)
p2009
sg55
g1998
sg160
VHello \u000ahow are you doing? up to text and see hows life going on your side? \u000alets talk \u000anice guy here :)
p2010
sS'title_detail'
p2011
g0
(g1
g2
(dp2012
g33
Vhttps://sfbay.craigslist.org/search/stp?format=rss
p2013
sg17
g69
sg36
Nsg37
g2009
stp2014
Rp2015
sg166
V2017-03-28T19:46:07-07:00
p2016
stp2017
Rp2018
ag0
(g1
g2
(dp2019
S'dc_source'
p2020
Vhttp://sfbay.craigslist.org/sby/stp/6062985140.html
p2021
sS'summary_detail'
p2022
g0
(g1
g2
(dp2023
g33
Vhttps://sfbay.craigslist.org/search/stp?format=rss
p2024
sg17
g63
sg36
Nsg37
VLooking for my dream to come true. Looking for a guy who's over 30+ funny , smart , respectful , fun , goofy but knows when to be serious also someone I can just vent to and vise versa . Looking to relocate there because I have more opportunities yes [...]
p2025
stp2026
Rp2027
sg82
g83
((I2017
I3
I29
I2
I34
I8
I2
I88
I0
tp2028
(dp2029
tp2030
Rp2031
sg12
(lp2032
g0
(g1
g2
(dp2033
g15
Vhttp://sfbay.craigslist.org/sby/stp/6062985140.html
p2034
sg17
g18
sg19
g20
stp2035
Rp2036
asg80
V2017-03-28T19:34:08-07:00
p2037
sg24
g2034
sS'rights_detail'
p2038
g0
(g1
g2
(dp2039
g33
Vhttps://sfbay.craigslist.org/search/stp?format=rss
p2040
sg17
g35
sg36
Nsg37
Vcopyright 2017 craiglist
p2041
stp2042
Rp2043
sg149
Vhttp://sfbay.craigslist.org/sby/stp/6062985140.html
p2044
sS'dc_type'
p2045
Vtext
p2046
sg36
Ven-us
p2047
sg154
g83
((I2017
I3
I29
I2
I34
I8
I2
I88
I0
tp2048
(dp2049
tp2050
Rp2051
sg53
VNew Mom - w4m
p2052
sg55
g2041
sg160
g2025
sS'title_detail'
p2053
g0
(g1
g2
(dp2054
g33
Vhttps://sfbay.craigslist.org/search/stp?format=rss
p2055
sg17
g69
sg36
Nsg37
g2052
stp2056
Rp2057
sg166
V2017-03-28T19:34:08-07:00
p2058
stp2059
Rp2060
ag0
(g1
g2
(dp2061
S'dc_source'
p2062
Vhttp://sfbay.craigslist.org/eby/stp/6058623519.html
p2063
sS'summary_detail'
p2064
g0
(g1
g2
(dp2065
g33
Vhttps://sfbay.craigslist.org/search/stp?format=rss
p2066
sg17
g63
sg36
Nsg37
VCollege student hoping to find a friend to check out the bars with! \u000aRecently out of a long relationship and I left all my friends for someone. I lost them. I don't usually drink but I was hoping to have a beer and enjoy it while we both accompany ea [...]
p2067
stp2068
Rp2069
sg82
g83
((I2017
I3
I29
I2
I31
I38
I2
I88
I0
tp2070
(dp2071
tp2072
Rp2073
sg12
(lp2074
g0
(g1
g2
(dp2075
g15
Vhttp://sfbay.craigslist.org/eby/stp/6058623519.html
p2076
sg17
g18
sg19
g20
stp2077
Rp2078
asg80
V2017-03-28T19:31:38-07:00
p2079
sg24
g2076
sS'rights_detail'
p2080
g0
(g1
g2
(dp2081
g33
Vhttps://sfbay.craigslist.org/search/stp?format=rss
p2082
sg17
g35
sg36
Nsg37
Vcopyright 2017 craiglist
p2083
stp2084
Rp2085
sg149
Vhttp://sfbay.craigslist.org/eby/stp/6058623519.html
p2086
sS'dc_type'
p2087
Vtext
p2088
sg36
Ven-us
p2089
sg154
g83
((I2017
I3
I29
I2
I31
I38
I2
I88
I0
tp2090
(dp2091
tp2092
Rp2093
sg53
VLiT! - THE GOOD TIME TAVERN? BAR HOPPING??  \U0001f60a - m4w (dublin / pleasanton / livermore)
p2094
sg55
g2083
sg160
VCollege student hoping to find a friend to check out the bars with! \u000aRecently out of a long relationship and I left all my friends for someone. I lost them. I don't usually drink but I was hoping to have a beer and enjoy it while we both accompany ea [...]
p2095
sS'title_detail'
p2096
g0
(g1
g2
(dp2097
g33
Vhttps://sfbay.craigslist.org/search/stp?format=rss
p2098
sg17
g69
sg36
Nsg37
g2094
stp2099
Rp2100
sg166
V2017-03-28T19:31:38-07:00
p2101
stp2102
Rp2103
ag0
(g1
g2
(dp2104
S'dc_source'
p2105
Vhttp://sfbay.craigslist.org/eby/stp/6064553849.html
p2106
sS'summary_detail'
p2107
g0
(g1
g2
(dp2108
g33
Vhttps://sfbay.craigslist.org/search/stp?format=rss
p2109
sg17
g63
sg36
Nsg37
VIt would be so nice to find someone to connect with and make out. Not looking for anything more, just making out.
p2110
stp2111
Rp2112
sg82
g83
((I2017
I3
I29
I2
I19
I20
I2
I88
I0
tp2113
(dp2114
tp2115
Rp2116
sg12
(lp2117
g0
(g1
g2
(dp2118
g15
Vhttp://sfbay.craigslist.org/eby/stp/6064553849.html
p2119
sg17
g18
sg19
g20
stp2120
Rp2121
asg80
V2017-03-28T19:19:20-07:00
p2122
sg24
g2119
sS'rights_detail'
p2123
g0
(g1
g2
(dp2124
g33
Vhttps://sfbay.craigslist.org/search/stp?format=rss
p2125
sg17
g35
sg36
Nsg37
Vcopyright 2017 craiglist
p2126
stp2127
Rp2128
sg149
Vhttp://sfbay.craigslist.org/eby/stp/6064553849.html
p2129
sS'dc_type'
p2130
Vtext
p2131
sg36
Ven-us
p2132
sg154
g83
((I2017
I3
I29
I2
I19
I20
I2
I88
I0
tp2133
(dp2134
tp2135
Rp2136
sg53
VJust make out... - m4w (oakland north / temescal)
p2137
sg55
g2126
sg160
g2110
sS'title_detail'
p2138
g0
(g1
g2
(dp2139
g33
Vhttps://sfbay.craigslist.org/search/stp?format=rss
p2140
sg17
g69
sg36
Nsg37
g2137
stp2141
Rp2142
sg166
V2017-03-28T19:19:20-07:00
p2143
stp2144
Rp2145
ag0
(g1
g2
(dp2146
S'dc_source'
p2147
Vhttp://sfbay.craigslist.org/sfc/stp/6047189104.html
p2148
sS'summary_detail'
p2149
g0
(g1
g2
(dp2150
g33
Vhttps://sfbay.craigslist.org/search/stp?format=rss
p2151
sg17
g63
sg36
Nsg37
VLet's go to the movies tonight? \u000aI'd be down to watch Logan, Kong, Get Out, or Beauty and the Beast. \u000aI am single, fit, good looking, nice, cool, and easygoing! \u000aI am looking for the same :) \u000aPlease be local (SF or Daly City), 18+, cool, and love mov [...]
p2152
stp2153
Rp2154
sg82
g83
((I2017
I3
I29
I2
I8
I19
I2
I88
I0
tp2155
(dp2156
tp2157
Rp2158
sg12
(lp2159
g0
(g1
g2
(dp2160
g15
Vhttp://sfbay.craigslist.org/sfc/stp/6047189104.html
p2161
sg17
g18
sg19
g20
stp2162
Rp2163
asg80
V2017-03-28T19:08:19-07:00
p2164
sg24
g2161
sS'rights_detail'
p2165
g0
(g1
g2
(dp2166
g33
Vhttps://sfbay.craigslist.org/search/stp?format=rss
p2167
sg17
g35
sg36
Nsg37
Vcopyright 2017 craiglist
p2168
stp2169
Rp2170
sS'enc_enclosure'
p2171
(dp2172
S'type'
p2173
Vimage/jpeg
p2174
sS'resource'
p2175
Vhttps://images.craigslist.org/00L0L_5CMKh38MYbl_300x300.jpg
p2176
ssg149
Vhttp://sfbay.craigslist.org/sfc/stp/6047189104.html
p2177
sS'dc_type'
p2178
Vtext
p2179
sg36
Ven-us
p2180
sg154
g83
((I2017
I3
I29
I2
I8
I19
I2
I88
I0
tp2181
(dp2182
tp2183
Rp2184
sg53
VLet's go to the movies tonight ! - m4w (ingleside / SFSU / CCSF)
p2185
sg55
g2168
sg160
VLet's go to the movies tonight? \u000aI'd be down to watch Logan, Kong, Get Out, or Beauty and the Beast. \u000aI am single, fit, good looking, nice, cool, and easygoing! \u000aI am looking for the same :) \u000aPlease be local (SF or Daly City), 18+, cool, and love mov [...]
p2186
sS'title_detail'
p2187
g0
(g1
g2
(dp2188
g33
Vhttps://sfbay.craigslist.org/search/stp?format=rss
p2189
sg17
g69
sg36
Nsg37
g2185
stp2190
Rp2191
sg166
V2017-03-28T19:08:19-07:00
p2192
stp2193
Rp2194
ag0
(g1
g2
(dp2195
S'dc_source'
p2196
Vhttp://sfbay.craigslist.org/sfc/stp/6064518565.html
p2197
sS'summary_detail'
p2198
g0
(g1
g2
(dp2199
g33
Vhttps://sfbay.craigslist.org/search/stp?format=rss
p2200
sg17
g63
sg36
Nsg37
Vwould believe you if you told them about it, and if they did they would just hate you for it. I know what you are probably thinking that I am thinking, and no, it is not my penis. That would be inappropriate for a strictly platonic servitor, that's r [...]
p2201
stp2202
Rp2203
sg82
g83
((I2017
I3
I29
I1
I58
I38
I2
I88
I0
tp2204
(dp2205
tp2206
Rp2207
sg12
(lp2208
g0
(g1
g2
(dp2209
g15
Vhttp://sfbay.craigslist.org/sfc/stp/6064518565.html
p2210
sg17
g18
sg19
g20
stp2211
Rp2212
asg80
V2017-03-28T18:58:38-07:00
p2213
sg24
g2210
sS'rights_detail'
p2214
g0
(g1
g2
(dp2215
g33
Vhttps://sfbay.craigslist.org/search/stp?format=rss
p2216
sg17
g35
sg36
Nsg37
Vcopyright 2017 craiglist
p2217
stp2218
Rp2219
sS'enc_enclosure'
p2220
(dp2221
S'type'
p2222
Vimage/jpeg
p2223
sS'resource'
p2224
Vhttps://images.craigslist.org/00S0S_HK9ytRjvs_300x300.jpg
p2225
ssg149
Vhttp://sfbay.craigslist.org/sfc/stp/6064518565.html
p2226
sS'dc_type'
p2227
Vtext
p2228
sg36
Ven-us
p2229
sg154
g83
((I2017
I3
I29
I1
I58
I38
I2
I88
I0
tp2230
(dp2231
tp2232
Rp2233
sg53
VOnce, there was this thing that was too good to be true, that no one.. - m4w (nob hill)
p2234
sg55
g2217
sg160
g2201
sS'title_detail'
p2235
g0
(g1
g2
(dp2236
g33
Vhttps://sfbay.craigslist.org/search/stp?format=rss
p2237
sg17
g69
sg36
Nsg37
g2234
stp2238
Rp2239
sg166
V2017-03-28T18:58:38-07:00
p2240
stp2241
Rp2242
ag0
(g1
g2
(dp2243
S'dc_source'
p2244
Vhttp://sfbay.craigslist.org/eby/stp/6040163163.html
p2245
sS'summary_detail'
p2246
g0
(g1
g2
(dp2247
g33
Vhttps://sfbay.craigslist.org/search/stp?format=rss
p2248
sg17
g63
sg36
Nsg37
VThis safe hands only massage will enable you to reach levels of arousal you've never experienced or even thought possible before. Relax and Enjoy the sensations of a Tantra/Yoni Massage.. \u000aThe session begins with you lying face down as I relax you wi [...]
p2249
stp2250
Rp2251
sg82
g83
((I2017
I3
I29
I1
I57
I3
I2
I88
I0
tp2252
(dp2253
tp2254
Rp2255
sg12
(lp2256
g0
(g1
g2
(dp2257
g15
Vhttp://sfbay.craigslist.org/eby/stp/6040163163.html
p2258
sg17
g18
sg19
g20
stp2259
Rp2260
asg80
V2017-03-28T18:57:03-07:00
p2261
sg24
g2258
sS'rights_detail'
p2262
g0
(g1
g2
(dp2263
g33
Vhttps://sfbay.craigslist.org/search/stp?format=rss
p2264
sg17
g35
sg36
Nsg37
Vcopyright 2017 craiglist
p2265
stp2266
Rp2267
sg149
Vhttp://sfbay.craigslist.org/eby/stp/6040163163.html
p2268
sS'dc_type'
p2269
Vtext
p2270
sg36
Ven-us
p2271
sg154
g83
((I2017
I3
I29
I1
I57
I3
I2
I88
I0
tp2272
(dp2273
tp2274
Rp2275
sg53
VWould you like to experience Tantra/Yoni? - m4w (fremont / union city / newark)
p2276
sg55
g2265
sg160
VThis safe hands only massage will enable you to reach levels of arousal you've never experienced or even thought possible before. Relax and Enjoy the sensations of a Tantra/Yoni Massage.. \u000aThe session begins with you lying face down as I relax you wi [...]
p2277
sS'title_detail'
p2278
g0
(g1
g2
(dp2279
g33
Vhttps://sfbay.craigslist.org/search/stp?format=rss
p2280
sg17
g69
sg36
Nsg37
g2276
stp2281
Rp2282
sg166
V2017-03-28T18:57:03-07:00
p2283
stp2284
Rp2285
ag0
(g1
g2
(dp2286
S'dc_source'
p2287
Vhttp://sfbay.craigslist.org/sby/stp/6064512277.html
p2288
sS'summary_detail'
p2289
g0
(g1
g2
(dp2290
g33
Vhttps://sfbay.craigslist.org/search/stp?format=rss
p2291
sg17
g63
sg36
Nsg37
VHello there! \u000aBored with your home life and craving a lil adventure? Feeling daring? Maybe even emotionally "checked out" of your relationship? Want to slip away from hubby and the kids for coffee, lunch (initially) and maybe even something more, as  [...]
p2292
stp2293
Rp2294
sg82
g83
((I2017
I3
I29
I1
I51
I35
I2
I88
I0
tp2295
(dp2296
tp2297
Rp2298
sg12
(lp2299
g0
(g1
g2
(dp2300
g15
Vhttp://sfbay.craigslist.org/sby/stp/6064512277.html
p2301
sg17
g18
sg19
g20
stp2302
Rp2303
asg80
V2017-03-28T18:51:35-07:00
p2304
sg24
g2301
sS'rights_detail'
p2305
g0
(g1
g2
(dp2306
g33
Vhttps://sfbay.craigslist.org/search/stp?format=rss
p2307
sg17
g35
sg36
Nsg37
Vcopyright 2017 craiglist
p2308
stp2309
Rp2310
sS'enc_enclosure'
p2311
(dp2312
S'type'
p2313
Vimage/jpeg
p2314
sS'resource'
p2315
Vhttps://images.craigslist.org/00g0g_5tyQ6ueGMc1_300x300.jpg
p2316
ssg149
Vhttp://sfbay.craigslist.org/sby/stp/6064512277.html
p2317
sS'dc_type'
p2318
Vtext
p2319
sg36
Ven-us
p2320
sg154
g83
((I2017
I3
I29
I1
I51
I35
I2
I88
I0
tp2321
(dp2322
tp2323
Rp2324
sg53
VYou and I, meet, smile, and don't tell anyone ... - m4w (campbell)
p2325
sg55
g2308
sg160
VHello there! \u000aBored with your home life and craving a lil adventure? Feeling daring? Maybe even emotionally "checked out" of your relationship? Want to slip away from hubby and the kids for coffee, lunch (initially) and maybe even something more, as  [...]
p2326
sS'title_detail'
p2327
g0
(g1
g2
(dp2328
g33
Vhttps://sfbay.craigslist.org/search/stp?format=rss
p2329
sg17
g69
sg36
Nsg37
g2325
stp2330
Rp2331
sg166
V2017-03-28T18:51:35-07:00
p2332
stp2333
Rp2334
ag0
(g1
g2
(dp2335
S'dc_source'
p2336
Vhttp://sfbay.craigslist.org/sby/stp/6064523993.html
p2337
sS'summary_detail'
p2338
g0
(g1
g2
(dp2339
g33
Vhttps://sfbay.craigslist.org/search/stp?format=rss
p2340
sg17
g63
sg36
Nsg37
VWhere: Pick your favorite hangout/dive. \u000aWhen: Now to before 11PM \u000aWhat: Drink (s). Please bring your own $$ \u000aWhy: Becuase I am bored and in need of a reason to step out. I can always use a decent human connection. \u000aWhy: Whatever reason floats your b [...]
p2341
stp2342
Rp2343
sg82
g83
((I2017
I3
I29
I1
I48
I54
I2
I88
I0
tp2344
(dp2345
tp2346
Rp2347
sg12
(lp2348
g0
(g1
g2
(dp2349
g15
Vhttp://sfbay.craigslist.org/sby/stp/6064523993.html
p2350
sg17
g18
sg19
g20
stp2351
Rp2352
asg80
V2017-03-28T18:48:54-07:00
p2353
sg24
g2350
sS'rights_detail'
p2354
g0
(g1
g2
(dp2355
g33
Vhttps://sfbay.craigslist.org/search/stp?format=rss
p2356
sg17
g35
sg36
Nsg37
Vcopyright 2017 craiglist
p2357
stp2358
Rp2359
sS'enc_enclosure'
p2360
(dp2361
S'type'
p2362
Vimage/jpeg
p2363
sS'resource'
p2364
Vhttps://images.craigslist.org/00a0a_2Mu0NOJPLqA_300x300.jpg
p2365
ssg149
Vhttp://sfbay.craigslist.org/sby/stp/6064523993.html
p2366
sS'dc_type'
p2367
Vtext
p2368
sg36
Ven-us
p2369
sg154
g83
((I2017
I3
I29
I1
I48
I54
I2
I88
I0
tp2370
(dp2371
tp2372
Rp2373
sg53
VA Drink!? - m4w (mountain view)
p2374
sg55
g2357
sg160
VWhere: Pick your favorite hangout/dive. \u000aWhen: Now to before 11PM \u000aWhat: Drink (s). Please bring your own $$ \u000aWhy: Becuase I am bored and in need of a reason to step out. I can always use a decent human connection. \u000aWhy: Whatever reason floats your b [...]
p2375
sS'title_detail'
p2376
g0
(g1
g2
(dp2377
g33
Vhttps://sfbay.craigslist.org/search/stp?format=rss
p2378
sg17
g69
sg36
Nsg37
g2374
stp2379
Rp2380
sg166
V2017-03-28T18:48:54-07:00
p2381
stp2382
Rp2383
ag0
(g1
g2
(dp2384
S'dc_source'
p2385
Vhttp://sfbay.craigslist.org/sfc/stp/6064515879.html
p2386
sS'summary_detail'
p2387
g0
(g1
g2
(dp2388
g33
Vhttps://sfbay.craigslist.org/search/stp?format=rss
p2389
sg17
g63
sg36
Nsg37
VWant to learn? \u000a- Learn the proper way to exercise the muscle groups you want to focus on \u000a- Be more motivated to workout regularly \u000a- Learn new exercises to train for the outdoor activities you like \u000aHere to assess your needs, goals, and current fit [...]
p2390
stp2391
Rp2392
sg82
g83
((I2017
I3
I29
I1
I41
I4
I2
I88
I0
tp2393
(dp2394
tp2395
Rp2396
sg12
(lp2397
g0
(g1
g2
(dp2398
g15
Vhttp://sfbay.craigslist.org/sfc/stp/6064515879.html
p2399
sg17
g18
sg19
g20
stp2400
Rp2401
asg80
V2017-03-28T18:41:04-07:00
p2402
sg24
g2399
sS'rights_detail'
p2403
g0
(g1
g2
(dp2404
g33
Vhttps://sfbay.craigslist.org/search/stp?format=rss
p2405
sg17
g35
sg36
Nsg37
Vcopyright 2017 craiglist
p2406
stp2407
Rp2408
sg149
Vhttp://sfbay.craigslist.org/sfc/stp/6064515879.html
p2409
sS'dc_type'
p2410
Vtext
p2411
sg36
Ven-us
p2412
sg154
g83
((I2017
I3
I29
I1
I41
I4
I2
I88
I0
tp2413
(dp2414
tp2415
Rp2416
sg53
VGym summer body- - m4m (castro / upper market)
p2417
sg55
g2406
sg160
VWant to learn? \u000a- Learn the proper way to exercise the muscle groups you want to focus on \u000a- Be more motivated to workout regularly \u000a- Learn new exercises to train for the outdoor activities you like \u000aHere to assess your needs, goals, and current fit [...]
p2418
sS'title_detail'
p2419
g0
(g1
g2
(dp2420
g33
Vhttps://sfbay.craigslist.org/search/stp?format=rss
p2421
sg17
g69
sg36
Nsg37
g2417
stp2422
Rp2423
sg166
V2017-03-28T18:41:04-07:00
p2424
stp2425
Rp2426
ag0
(g1
g2
(dp2427
S'dc_source'
p2428
Vhttp://sfbay.craigslist.org/sby/stp/6052636543.html
p2429
sS'summary_detail'
p2430
g0
(g1
g2
(dp2431
g33
Vhttps://sfbay.craigslist.org/search/stp?format=rss
p2432
sg17
g63
sg36
Nsg37
VI'm handsome, polite, and sincere. 5'11" tall, white, very neat goatee, and with colored eyes. I'm a husky fella. But active. \u000aI'm an open book, I will be truthful with any question or conversation. Let's chat and see if there is a click! \u000aHope to he [...]
p2433
stp2434
Rp2435
sg82
g83
((I2017
I3
I29
I1
I34
I51
I2
I88
I0
tp2436
(dp2437
tp2438
Rp2439
sg12
(lp2440
g0
(g1
g2
(dp2441
g15
Vhttp://sfbay.craigslist.org/sby/stp/6052636543.html
p2442
sg17
g18
sg19
g20
stp2443
Rp2444
asg80
V2017-03-28T18:34:51-07:00
p2445
sg24
g2442
sS'rights_detail'
p2446
g0
(g1
g2
(dp2447
g33
Vhttps://sfbay.craigslist.org/search/stp?format=rss
p2448
sg17
g35
sg36
Nsg37
Vcopyright 2017 craiglist
p2449
stp2450
Rp2451
sS'enc_enclosure'
p2452
(dp2453
S'type'
p2454
Vimage/jpeg
p2455
sS'resource'
p2456
Vhttps://images.craigslist.org/00j0j_cB24cvgiCXX_300x300.jpg
p2457
ssg149
Vhttp://sfbay.craigslist.org/sby/stp/6052636543.html
p2458
sS'dc_type'
p2459
Vtext
p2460
sg36
Ven-us
p2461
sg154
g83
((I2017
I3
I29
I1
I34
I51
I2
I88
I0
tp2462
(dp2463
tp2464
Rp2465
sg53
VAre you married? (campbell)
p2466
sg55
g2449
sg160
VI'm handsome, polite, and sincere. 5'11" tall, white, very neat goatee, and with colored eyes. I'm a husky fella. But active. \u000aI'm an open book, I will be truthful with any question or conversation. Let's chat and see if there is a click! \u000aHope to he [...]
p2467
sS'title_detail'
p2468
g0
(g1
g2
(dp2469
g33
Vhttps://sfbay.craigslist.org/search/stp?format=rss
p2470
sg17
g69
sg36
Nsg37
g2466
stp2471
Rp2472
sg166
V2017-03-28T18:34:51-07:00
p2473
stp2474
Rp2475
asg1251
(dp2476
g1253
Vhttp://purl.org/rss/1.0/
p2477
sg1255
Vhttp://purl.org/rss/1.0/modules/syndication/
p2478
sVenc
p2479
Vhttp://purl.oclc.org/net/rss_2.0/enc#
p2480
sg1259
Vhttp://purl.org/rss/1.0/modules/taxonomy/
p2481
sg1261
Vhttp://webns.net/mvcb/
p2482
sg1263
Vhttp://purl.org/dc/elements/1.1/
p2483
sg1265
Vhttp://purl.org/rss/1.0/modules/content/
p2484
sg1267
Vhttp://www.w3.org/1999/02/22-rdf-syntax-ns#
p2485
sg1269
Vhttp://purl.org/rss/1.0/modules/event/
p2486
sg1271
Vhttp://purl.org/dc/terms/
p2487
sstp2488
Rp2489
tp2490
.